Zilog eZ80 Macro Assembler Version 4.3 (19073001)12-Apr-21     16:28:57     page:   1


PC     Object              I  Line    Source 
                           A     1    ; Zilog eZ80 ANSI C Compiler Release 3.4
                           A     2    ; -noglobalopt -nolocalcse -optsize -nomodsect 
                           A     3    ; -nopadbranch -debug -peephole -const=ROM 
                           A     4    	FILE	"..\ra8875.c"
                           A     5    	.assume ADL=1
                           A     6    .DEBUG "C"
                           A     7    	SEGMENT CODE
                           A     8    .BEGREC "fmt_type",19
                           A     9    .DEFINE "status"
                           A    10    .VALUE 0
                           A    11    .CLASS 8
                           A    12    .TYPE 12
                           A    13    .ENDEF
                           A    14    .DEFINE "flags"
                           A    15    .VALUE 1
                           A    16    .CLASS 8
                           A    17    .TYPE 12
                           A    18    .ENDEF
                           A    19    .DEFINE "size"
                           A    20    .VALUE 2
                           A    21    .CLASS 8
                           A    22    .TYPE 2
                           A    23    .ENDEF
                           A    24    .DEFINE "chr"
                           A    25    .VALUE 3
                           A    26    .CLASS 8
                           A    27    .TYPE 2
                           A    28    .ENDEF
                           A    29    .DEFINE "type"
                           A    30    .VALUE 4
                           A    31    .CLASS 8
                           A    32    .TYPE 2
                           A    33    .ENDEF
                           A    34    .DEFINE "field_width"
                           A    35    .VALUE 5
                           A    36    .CLASS 8
                           A    37    .TYPE 2
                           A    38    .ENDEF
                           A    39    .DEFINE "precision"
                           A    40    .VALUE 6
                           A    41    .CLASS 8
                           A    42    .TYPE 2
                           A    43    .ENDEF
                           A    44    .DEFINE "set_begin"
                           A    45    .VALUE 7
                           A    46    .CLASS 8
                           A    47    .TYPE 34
                           A    48    .ENDEF
                           A    49    .DEFINE "set_end"
                           A    50    .VALUE 10
                           A    51    .CLASS 8
                           A    52    .TYPE 34
                           A    53    .ENDEF
                           A    54    .DEFINE "pad_whole"
                           A    55    .VALUE 13
                           A    56    .CLASS 8
                           A    57    .TYPE 12
                           A    58    .ENDEF
                           A    59    .DEFINE "pad_pre_fract"
                           A    60    .VALUE 14
                           A    61    .CLASS 8
                           A    62    .TYPE 12
                           A    63    .ENDEF
                           A    64    .DEFINE "pad_post_fract"
                           A    65    .VALUE 15
                           A    66    .CLASS 8
                           A    67    .TYPE 12
                           A    68    .ENDEF
                           A    69    .DEFINE "pad_at"
                           A    70    .VALUE 16
                           A    71    .CLASS 8
                           A    72    .TYPE 34
                           A    73    .ENDEF
                           A    74    .ENDREC "fmt_type"
                           A    75    .BEGREC "flt_info",12
                           A    76    .DEFINE "flags"
                           A    77    .VALUE 0
                           A    78    .CLASS 8
                           A    79    .TYPE 12
                           A    80    .ENDEF
                           A    81    .DEFINE "exp"
                           A    82    .VALUE 1
                           A    83    .CLASS 8
                           A    84    .TYPE 2
                           A    85    .ENDEF
                           A    86    .DEFINE "digits"
                           A    87    .VALUE 2
                           A    88    .CLASS 8
                           A    89    .DIM 10
                           A    90    .TYPE 108
                           A    91    .ENDEF
                           A    92    .ENDREC "flt_info"
                           A    93    .BEGREC "CPU_REG",32
                           A    94    .DEFINE "regAFz"
                           A    95    .VALUE 0
                           A    96    .CLASS 8
                           A    97    .TYPE 15
                           A    98    .ENDEF
                           A    99    .DEFINE "regBCz"
                           A   100    .VALUE 4
                           A   101    .CLASS 8
                           A   102    .TYPE 15
                           A   103    .ENDEF
                           A   104    .DEFINE "regDEz"
                           A   105    .VALUE 8
                           A   106    .CLASS 8
                           A   107    .TYPE 15
                           A   108    .ENDEF
                           A   109    .DEFINE "regHLz"
                           A   110    .VALUE 12
                           A   111    .CLASS 8
                           A   112    .TYPE 15
                           A   113    .ENDEF
                           A   114    .DEFINE "regIXz"
                           A   115    .VALUE 16
                           A   116    .CLASS 8
                           A   117    .TYPE 15
                           A   118    .ENDEF
                           A   119    .DEFINE "regIYz"
                           A   120    .VALUE 20
                           A   121    .CLASS 8
                           A   122    .TYPE 15
                           A   123    .ENDEF
                           A   124    .DEFINE "regPCz"
                           A   125    .VALUE 24
                           A   126    .CLASS 8
                           A   127    .TYPE 15
                           A   128    .ENDEF
                           A   129    .DEFINE "regSPz"
                           A   130    .VALUE 28
                           A   131    .CLASS 8
                           A   132    .TYPE 15
                           A   133    .ENDEF
                           A   134    .ENDREC "CPU_REG"
                           A   135    .BEGREC "THREADPARAMS_STRUCT_t",22
                           A   136    .DEFINE "szName"
                           A   137    .VALUE 0
                           A   138    .CLASS 8
                           A   139    .DIM 12
                           A   140    .TYPE 108
                           A   141    .ENDEF
                           A   142    .DEFINE "uState"
                           A   143    .VALUE 12
                           A   144    .CLASS 8
                           A   145    .TYPE 12
                           A   146    .ENDEF
                           A   147    .DEFINE "uBankSelector"
                           A   148    .VALUE 13
                           A   149    .CLASS 8
                           A   150    .TYPE 12
                           A   151    .ENDEF
                           A   152    .DEFINE "uOperationMode"
                           A   153    .VALUE 14
                           A   154    .CLASS 8
                           A   155    .TYPE 12
                           A   156    .ENDEF
                           A   157    .DEFINE "tQuantum"
                           A   158    .VALUE 15
                           A   159    .CLASS 8
                           A   160    .TYPE 14
                           A   161    .ENDEF
                           A   162    .DEFINE "cPriority"
                           A   163    .VALUE 18
                           A   164    .CLASS 8
                           A   165    .TYPE 12
                           A   166    .ENDEF
                           A   167    .DEFINE "sSignalReceive"
                           A   168    .VALUE 19
                           A   169    .CLASS 8
                           A   170    .TYPE 14
                           A   171    .ENDEF
                           A   172    .ENDREC "THREADPARAMS_STRUCT_t"
                           A   173    .BEGREC "RZK_THREAD_CB",127
                           A   174    .DEFINE "CB"
                           A   175    .VALUE 0
                           A   176    .CLASS 8
                           A   177    .DIM 127
                           A   178    .TYPE 108
                           A   179    .ENDEF
                           A   180    .ENDREC "RZK_THREAD_CB"
                           A   181    .BEGREC "devCap",4
                           A   182    .DEFINE "devType"
                           A   183    .VALUE 0
                           A   184    .CLASS 8
                           A   185    .TYPE 12
                           A   186    .ENDEF
                           A   187    .DEFINE "devHdl"
                           A   188    .VALUE 1
                           A   189    .CLASS 8
                           A   190    .TYPE 33
                           A   191    .ENDEF
                           A   192    .ENDREC "devCap"
                           A   193    .BEGREC "RZK_DEVICE_CB_t",54
                           A   194    .DEFINE "InUse"
                           A   195    .VALUE 0
                           A   196    .CLASS 8
                           A   197    .TYPE 12
                           A   198    .ENDEF
                           A   199    .DEFINE "devName"
                           A   200    .VALUE 1
                           A   201    .CLASS 8
                           A   202    .DIM 12
                           A   203    .TYPE 98
                           A   204    .ENDEF
                           A   205    .DEFINE "fnInit"
                           A   206    .VALUE 13
                           A   207    .CLASS 8
                           A   208    .TYPE 549
                           A   209    .ENDEF
                           A   210    .DEFINE "fnStop"
                           A   211    .VALUE 16
                           A   212    .CLASS 8
                           A   213    .TYPE 549
                           A   214    .ENDEF
                           A   215    .DEFINE "fnOpen"
                           A   216    .VALUE 19
                           A   217    .CLASS 8
                           A   218    .TYPE 549
                           A   219    .ENDEF
                           A   220    .DEFINE "fnClose"
                           A   221    .VALUE 22
                           A   222    .CLASS 8
                           A   223    .TYPE 549
                           A   224    .ENDEF
                           A   225    .DEFINE "fnRead"
                           A   226    .VALUE 25
                           A   227    .CLASS 8
                           A   228    .TYPE 549
                           A   229    .ENDEF
                           A   230    .DEFINE "fnWrite"
                           A   231    .VALUE 28
                           A   232    .CLASS 8
                           A   233    .TYPE 549
                           A   234    .ENDEF
                           A   235    .DEFINE "fnSeek"
                           A   236    .VALUE 31
                           A   237    .CLASS 8
                           A   238    .TYPE 549
                           A   239    .ENDEF
                           A   240    .DEFINE "fnGetc"
                           A   241    .VALUE 34
                           A   242    .CLASS 8
                           A   243    .TYPE 549
                           A   244    .ENDEF
                           A   245    .DEFINE "fnPutc"
                           A   246    .VALUE 37
                           A   247    .CLASS 8
                           A   248    .TYPE 549
                           A   249    .ENDEF
                           A   250    .DEFINE "fnIoctl"
                           A   251    .VALUE 40
                           A   252    .CLASS 8
                           A   253    .TYPE 549
                           A   254    .ENDEF
                           A   255    .DEFINE "dvintvector"
                           A   256    .VALUE 43
                           A   257    .CLASS 8
                           A   258    .TYPE 33
                           A   259    .ENDEF
                           A   260    .DEFINE "dvivec"
                           A   261    .VALUE 46
                           A   262    .CLASS 8
                           A   263    .TYPE 13
                           A   264    .ENDEF
                           A   265    .DEFINE "dvinputoutput"
                           A   266    .VALUE 48
                           A   267    .CLASS 8
                           A   268    .TYPE 44
                           A   269    .ENDEF
                           A   270    .DEFINE "devMode"
                           A   271    .VALUE 51
                           A   272    .CLASS 8
                           A   273    .TYPE 2
                           A   274    .ENDEF
                           A   275    .DEFINE "dvminor"
                           A   276    .VALUE 52
                           A   277    .CLASS 8
                           A   278    .TYPE 13
                           A   279    .ENDEF
                           A   280    .ENDREC "RZK_DEVICE_CB_t"
                           A   281    .BEGREC "RZK_INTERRUPT_CB",53
                           A   282    .DEFINE "CB"
                           A   283    .VALUE 0
                           A   284    .CLASS 8
                           A   285    .DIM 53
                           A   286    .TYPE 108
                           A   287    .ENDEF
                           A   288    .ENDREC "RZK_INTERRUPT_CB"
                           A   289    	SEGMENT DATA
000000                     A   290    __size:
000000 0100                A   291    	DW	1
000002 00                  A   292    	DB	0
                           A   293    .DEFINE "_size"
                           A   294    .ALIAS "__size"
                           A   295    .CLASS 69
                           A   296    .VALUE __size
                           A   297    .TYPE 4
                           A   298    .ENDEF
000003                     A   299    __width:
000003 2003                A   300    	DW	800
                           A   301    .DEFINE "_width"
                           A   302    .ALIAS "__width"
                           A   303    .CLASS 69
                           A   304    .VALUE __width
                           A   305    .TYPE 13
                           A   306    .ENDEF
000005                     A   307    __height:
000005 E001                A   308    	DW	480
                           A   309    .DEFINE "_height"
                           A   310    .ALIAS "__height"
                           A   311    .CLASS 69
                           A   312    .VALUE __height
                           A   313    .TYPE 13
                           A   314    .ENDEF
                           A   315    	SEGMENT BSS
000000                     A   316    __brightness:
000000                     A   317    	DS	1
                           A   318    .DEFINE "_brightness"
                           A   319    .ALIAS "__brightness"
                           A   320    .CLASS 83
                           A   321    .VALUE __brightness
                           A   322    .TYPE 12
                           A   323    .ENDEF
000001                     A   324    __textScale:
000001                     A   325    	DS	1
                           A   326    .DEFINE "_textScale"
                           A   327    .ALIAS "__textScale"
                           A   328    .CLASS 83
                           A   329    .VALUE __textScale
                           A   330    .TYPE 12
                           A   331    .ENDEF
                           A   332    	SEGMENT CODE
                           A   333    .BEGREC "NONAME1",17
                           A   334    .DEFINE "p"
                           A   335    .VALUE 0
                           A   336    .CLASS 8
                           A   337    .TYPE 44
                           A   338    .ENDEF
                           A   339    .DEFINE "font_type"
                           A   340    .VALUE 3
                           A   341    .CLASS 8
                           A   342    .TYPE 4
                           A   343    .ENDEF
                           A   344    .DEFINE "char_width"
                           A   345    .VALUE 6
                           A   346    .CLASS 8
                           A   347    .TYPE 3
                           A   348    .ENDEF
                           A   349    .DEFINE "char_height"
                           A   350    .VALUE 8
                           A   351    .CLASS 8
                           A   352    .TYPE 3
                           A   353    .ENDEF
                           A   354    .DEFINE "start_char"
                           A   355    .VALUE 10
                           A   356    .CLASS 8
                           A   357    .TYPE 13
                           A   358    .ENDEF
                           A   359    .DEFINE "end_char"
                           A   360    .VALUE 12
                           A   361    .CLASS 8
                           A   362    .TYPE 13
                           A   363    .ENDEF
                           A   364    .DEFINE "widths"
                           A   365    .VALUE 14
                           A   366    .CLASS 8
                           A   367    .TYPE 44
                           A   368    .ENDEF
                           A   369    .ENDREC "NONAME1"
                           A   370    .BEGREC "NONAME2",8
                           A   371    .DEFINE "xs"
                           A   372    .VALUE 0
                           A   373    .CLASS 8
                           A   374    .TYPE 3
                           A   375    .ENDEF
                           A   376    .DEFINE "ys"
                           A   377    .VALUE 2
                           A   378    .CLASS 8
                           A   379    .TYPE 3
                           A   380    .ENDEF
                           A   381    .DEFINE "xe"
                           A   382    .VALUE 4
                           A   383    .CLASS 8
                           A   384    .TYPE 3
                           A   385    .ENDEF
                           A   386    .DEFINE "ye"
                           A   387    .VALUE 6
                           A   388    .CLASS 8
                           A   389    .TYPE 3
                           A   390    .ENDEF
                           A   391    .ENDREC "NONAME2"
                           A   392    .BEGREC "NONAME3",23
                           A   393    .DEFINE "str"
                           A   394    .VALUE 0
                           A   395    .CLASS 8
                           A   396    .TYPE 34
                           A   397    .ENDEF
                           A   398    .DEFINE "font"
                           A   399    .VALUE 3
                           A   400    .CLASS 8
                           A   401    .TAG "NONAME1"
                           A   402    .TYPE 200
                           A   403    .ENDEF
                           A   404    .DEFINE "a"
                           A   405    .VALUE 6
                           A   406    .CLASS 8
                           A   407    .TAG "NONAME2"
                           A   408    .TYPE 8
                           A   409    .ENDEF
                           A   410    .DEFINE "fc"
                           A   411    .VALUE 14
                           A   412    .CLASS 8
                           A   413    .TYPE 13
                           A   414    .ENDEF
                           A   415    .DEFINE "bc"
                           A   416    .VALUE 16
                           A   417    .CLASS 8
                           A   418    .TYPE 13
                           A   419    .ENDEF
                           A   420    .DEFINE "align"
                           A   421    .VALUE 18
                           A   422    .CLASS 8
                           A   423    .TYPE 12
                           A   424    .ENDEF
                           A   425    .DEFINE "h_space"
                           A   426    .VALUE 19
                           A   427    .CLASS 8
                           A   428    .TYPE 3
                           A   429    .ENDEF
                           A   430    .DEFINE "v_space"
                           A   431    .VALUE 21
                           A   432    .CLASS 8
                           A   433    .TYPE 3
                           A   434    .ENDEF
                           A   435    .ENDREC "NONAME3"
                           A   436    .BEGREC "NONAME4",9
                           A   437    .DEFINE "p"
                           A   438    .VALUE 0
                           A   439    .CLASS 8
                           A   440    .TYPE 33
                           A   441    .ENDEF
                           A   442    .DEFINE "width"
                           A   443    .VALUE 3
                           A   444    .CLASS 8
                           A   445    .TYPE 13
                           A   446    .ENDEF
                           A   447    .DEFINE "height"
                           A   448    .VALUE 5
                           A   449    .CLASS 8
                           A   450    .TYPE 13
                           A   451    .ENDEF
                           A   452    .DEFINE "bpp"
                           A   453    .VALUE 7
                           A   454    .CLASS 8
                           A   455    .TYPE 12
                           A   456    .ENDEF
                           A   457    .DEFINE "colors"
                           A   458    .VALUE 8
                           A   459    .CLASS 8
                           A   460    .TYPE 12
                           A   461    .ENDEF
                           A   462    .ENDREC "NONAME4"
                           A   463    .BEGREC "NONAME5",7
                           A   464    .DEFINE "type"
                           A   465    .VALUE 0
                           A   466    .CLASS 8
                           A   467    .TYPE 12
                           A   468    .ENDEF
                           A   469    .DEFINE "id"
                           A   470    .VALUE 1
                           A   471    .CLASS 8
                           A   472    .TYPE 12
                           A   473    .ENDEF
                           A   474    .DEFINE "sub_id"
                           A   475    .VALUE 2
                           A   476    .CLASS 8
                           A   477    .TYPE 12
                           A   478    .ENDEF
                           A   479    .DEFINE "event"
                           A   480    .VALUE 3
                           A   481    .CLASS 8
                           A   482    .TYPE 12
                           A   483    .ENDEF
                           A   484    .DEFINE "src"
                           A   485    .VALUE 4
                           A   486    .CLASS 8
                           A   487    .TYPE 33
                           A   488    .ENDEF
                           A   489    .ENDREC "NONAME5"
                           A   490    .BEGREC "NONAME6",5
                           A   491    .DEFINE "state"
                           A   492    .VALUE 0
                           A   493    .CLASS 8
                           A   494    .TYPE 12
                           A   495    .ENDEF
                           A   496    .DEFINE "xp"
                           A   497    .VALUE 1
                           A   498    .CLASS 8
                           A   499    .TYPE 3
                           A   500    .ENDEF
                           A   501    .DEFINE "yp"
                           A   502    .VALUE 3
                           A   503    .CLASS 8
                           A   504    .TYPE 3
                           A   505    .ENDEF
                           A   506    .ENDREC "NONAME6"
                           A   507    .BEGREC "S_OBJECT",27
                           A   508    .DEFINE "state"
                           A   509    .VALUE 0
                           A   510    .CLASS 8
                           A   511    .TYPE 12
                           A   512    .ENDEF
                           A   513    .DEFINE "touch_state"
                           A   514    .VALUE 1
                           A   515    .CLASS 8
                           A   516    .TYPE 12
                           A   517    .ENDEF
                           A   518    .DEFINE "update"
                           A   519    .VALUE 2
                           A   520    .CLASS 8
                           A   521    .TYPE 545
                           A   522    .ENDEF
                           A   523    .DEFINE "a_abs"
                           A   524    .VALUE 5
                           A   525    .CLASS 8
                           A   526    .TAG "NONAME2"
                           A   527    .TYPE 8
                           A   528    .ENDEF
                           A   529    .DEFINE "a_rel"
                           A   530    .VALUE 13
                           A   531    .CLASS 8
                           A   532    .TAG "NONAME2"
                           A   533    .TYPE 8
                           A   534    .ENDEF
                           A   535    .DEFINE "type"
                           A   536    .VALUE 21
                           A   537    .CLASS 8
                           A   538    .TYPE 12
                           A   539    .ENDEF
                           A   540    .DEFINE "id"
                           A   541    .VALUE 22
                           A   542    .CLASS 8
                           A   543    .TYPE 12
                           A   544    .ENDEF
                           A   545    .DEFINE "event"
                           A   546    .VALUE 23
                           A   547    .CLASS 8
                           A   548    .TYPE 12
                           A   549    .ENDEF
                           A   550    .DEFINE "data"
                           A   551    .VALUE 24
                           A   552    .CLASS 8
                           A   553    .TYPE 33
                           A   554    .ENDEF
                           A   555    .ENDREC "S_OBJECT"
                           A   556    .BEGREC "NONAME7",18
                           A   557    .DEFINE "str"
                           A   558    .VALUE 0
                           A   559    .CLASS 8
                           A   560    .TYPE 34
                           A   561    .ENDEF
                           A   562    .DEFINE "font"
                           A   563    .VALUE 3
                           A   564    .CLASS 8
                           A   565    .TAG "NONAME1"
                           A   566    .TYPE 200
                           A   567    .ENDEF
                           A   568    .DEFINE "h_space"
                           A   569    .VALUE 6
                           A   570    .CLASS 8
                           A   571    .TYPE 2
                           A   572    .ENDEF
                           A   573    .DEFINE "v_space"
                           A   574    .VALUE 7
                           A   575    .CLASS 8
                           A   576    .TYPE 2
                           A   577    .ENDEF
                           A   578    .DEFINE "align"
                           A   579    .VALUE 8
                           A   580    .CLASS 8
                           A   581    .TYPE 12
                           A   582    .ENDEF
                           A   583    .DEFINE "fc"
                           A   584    .VALUE 9
                           A   585    .CLASS 8
                           A   586    .TYPE 13
                           A   587    .ENDEF
                           A   588    .DEFINE "bc"
                           A   589    .VALUE 11
                           A   590    .CLASS 8
                           A   591    .TYPE 13
                           A   592    .ENDEF
                           A   593    .DEFINE "ifc"
                           A   594    .VALUE 13
                           A   595    .CLASS 8
                           A   596    .TYPE 13
                           A   597    .ENDEF
                           A   598    .DEFINE "ibc"
                           A   599    .VALUE 15
                           A   600    .CLASS 8
                           A   601    .TYPE 13
                           A   602    .ENDEF
                           A   603    .DEFINE "height"
                           A   604    .VALUE 17
                           A   605    .CLASS 8
                           A   606    .TYPE 12
                           A   607    .ENDEF
                           A   608    .ENDREC "NONAME7"
                           A   609    .BEGREC "S_WINDOW",39
                           A   610    .DEFINE "objcnt"
                           A   611    .VALUE 0
                           A   612    .CLASS 8
                           A   613    .TYPE 12
                           A   614    .ENDEF
                           A   615    .DEFINE "objlst"
                           A   616    .VALUE 1
                           A   617    .CLASS 8
                           A   618    .TAG "S_OBJECT"
                           A   619    .TYPE 40
                           A   620    .ENDEF
                           A   621    .DEFINE "state"
                           A   622    .VALUE 4
                           A   623    .CLASS 8
                           A   624    .TYPE 12
                           A   625    .ENDEF
                           A   626    .DEFINE "fc"
                           A   627    .VALUE 5
                           A   628    .CLASS 8
                           A   629    .TYPE 13
                           A   630    .ENDEF
                           A   631    .DEFINE "bc"
                           A   632    .VALUE 7
                           A   633    .CLASS 8
                           A   634    .TYPE 13
                           A   635    .ENDEF
                           A   636    .DEFINE "xs"
                           A   637    .VALUE 9
                           A   638    .CLASS 8
                           A   639    .TYPE 3
                           A   640    .ENDEF
                           A   641    .DEFINE "ys"
                           A   642    .VALUE 11
                           A   643    .CLASS 8
                           A   644    .TYPE 3
                           A   645    .ENDEF
                           A   646    .DEFINE "xe"
                           A   647    .VALUE 13
                           A   648    .CLASS 8
                           A   649    .TYPE 3
                           A   650    .ENDEF
                           A   651    .DEFINE "ye"
                           A   652    .VALUE 15
                           A   653    .CLASS 8
                           A   654    .TYPE 3
                           A   655    .ENDEF
                           A   656    .DEFINE "style"
                           A   657    .VALUE 17
                           A   658    .CLASS 8
                           A   659    .TYPE 12
                           A   660    .ENDEF
                           A   661    .DEFINE "title"
                           A   662    .VALUE 18
                           A   663    .CLASS 8
                           A   664    .TAG "NONAME7"
                           A   665    .TYPE 8
                           A   666    .ENDEF
                           A   667    .DEFINE "cb"
                           A   668    .VALUE 36
                           A   669    .CLASS 8
                           A   670    .TYPE 545
                           A   671    .ENDEF
                           A   672    .ENDREC "S_WINDOW"
                           A   673    .BEGREC "NONAME8",19
                           A   674    .DEFINE "state"
                           A   675    .VALUE 0
                           A   676    .CLASS 8
                           A   677    .TYPE 12
                           A   678    .ENDEF
                           A   679    .DEFINE "style"
                           A   680    .VALUE 1
                           A   681    .CLASS 8
                           A   682    .TYPE 12
                           A   683    .ENDEF
                           A   684    .DEFINE "fc"
                           A   685    .VALUE 2
                           A   686    .CLASS 8
                           A   687    .TYPE 13
                           A   688    .ENDEF
                           A   689    .DEFINE "bc"
                           A   690    .VALUE 4
                           A   691    .CLASS 8
                           A   692    .TYPE 13
                           A   693    .ENDEF
                           A   694    .DEFINE "afc"
                           A   695    .VALUE 6
                           A   696    .CLASS 8
                           A   697    .TYPE 13
                           A   698    .ENDEF
                           A   699    .DEFINE "abc"
                           A   700    .VALUE 8
                           A   701    .CLASS 8
                           A   702    .TYPE 13
                           A   703    .ENDEF
                           A   704    .DEFINE "font"
                           A   705    .VALUE 10
                           A   706    .CLASS 8
                           A   707    .TAG "NONAME1"
                           A   708    .TYPE 200
                           A   709    .ENDEF
                           A   710    .DEFINE "align"
                           A   711    .VALUE 13
                           A   712    .CLASS 8
                           A   713    .TYPE 12
                           A   714    .ENDEF
                           A   715    .DEFINE "h_space"
                           A   716    .VALUE 14
                           A   717    .CLASS 8
                           A   718    .TYPE 2
                           A   719    .ENDEF
                           A   720    .DEFINE "v_space"
                           A   721    .VALUE 15
                           A   722    .CLASS 8
                           A   723    .TYPE 2
                           A   724    .ENDEF
                           A   725    .DEFINE "str"
                           A   726    .VALUE 16
                           A   727    .CLASS 8
                           A   728    .TYPE 34
                           A   729    .ENDEF
                           A   730    .ENDREC "NONAME8"
                           A   731    .BEGREC "NONAME9",20
                           A   732    .DEFINE "state"
                           A   733    .VALUE 0
                           A   734    .CLASS 8
                           A   735    .TYPE 12
                           A   736    .ENDEF
                           A   737    .DEFINE "style"
                           A   738    .VALUE 1
                           A   739    .CLASS 8
                           A   740    .TYPE 12
                           A   741    .ENDEF
                           A   742    .DEFINE "fc"
                           A   743    .VALUE 2
                           A   744    .CLASS 8
                           A   745    .TYPE 13
                           A   746    .ENDEF
                           A   747    .DEFINE "bc"
                           A   748    .VALUE 4
                           A   749    .CLASS 8
                           A   750    .TYPE 13
                           A   751    .ENDEF
                           A   752    .DEFINE "afc"
                           A   753    .VALUE 6
                           A   754    .CLASS 8
                           A   755    .TYPE 13
                           A   756    .ENDEF
                           A   757    .DEFINE "abc"
                           A   758    .VALUE 8
                           A   759    .CLASS 8
                           A   760    .TYPE 13
                           A   761    .ENDEF
                           A   762    .DEFINE "font"
                           A   763    .VALUE 10
                           A   764    .CLASS 8
                           A   765    .TAG "NONAME1"
                           A   766    .TYPE 200
                           A   767    .ENDEF
                           A   768    .DEFINE "align"
                           A   769    .VALUE 13
                           A   770    .CLASS 8
                           A   771    .TYPE 12
                           A   772    .ENDEF
                           A   773    .DEFINE "h_space"
                           A   774    .VALUE 14
                           A   775    .CLASS 8
                           A   776    .TYPE 2
                           A   777    .ENDEF
                           A   778    .DEFINE "v_space"
                           A   779    .VALUE 15
                           A   780    .CLASS 8
                           A   781    .TYPE 2
                           A   782    .ENDEF
                           A   783    .DEFINE "str"
                           A   784    .VALUE 16
                           A   785    .CLASS 8
                           A   786    .TYPE 34
                           A   787    .ENDEF
                           A   788    .DEFINE "checked"
                           A   789    .VALUE 19
                           A   790    .CLASS 8
                           A   791    .TYPE 12
                           A   792    .ENDEF
                           A   793    .ENDREC "NONAME9"
                           A   794    .BEGREC "NONAME10",14
                           A   795    .DEFINE "str"
                           A   796    .VALUE 0
                           A   797    .CLASS 8
                           A   798    .TYPE 34
                           A   799    .ENDEF
                           A   800    .DEFINE "font"
                           A   801    .VALUE 3
                           A   802    .CLASS 8
                           A   803    .TAG "NONAME1"
                           A   804    .TYPE 200
                           A   805    .ENDEF
                           A   806    .DEFINE "style"
                           A   807    .VALUE 6
                           A   808    .CLASS 8
                           A   809    .TYPE 12
                           A   810    .ENDEF
                           A   811    .DEFINE "fc"
                           A   812    .VALUE 7
                           A   813    .CLASS 8
                           A   814    .TYPE 13
                           A   815    .ENDEF
                           A   816    .DEFINE "bc"
                           A   817    .VALUE 9
                           A   818    .CLASS 8
                           A   819    .TYPE 13
                           A   820    .ENDEF
                           A   821    .DEFINE "align"
                           A   822    .VALUE 11
                           A   823    .CLASS 8
                           A   824    .TYPE 12
                           A   825    .ENDEF
                           A   826    .DEFINE "h_space"
                           A   827    .VALUE 12
                           A   828    .CLASS 8
                           A   829    .TYPE 2
                           A   830    .ENDEF
                           A   831    .DEFINE "v_space"
                           A   832    .VALUE 13
                           A   833    .CLASS 8
                           A   834    .TYPE 2
                           A   835    .ENDEF
                           A   836    .ENDREC "NONAME10"
                           A   837    .BEGREC "NONAME11",4
                           A   838    .DEFINE "img"
                           A   839    .VALUE 0
                           A   840    .CLASS 8
                           A   841    .TYPE 33
                           A   842    .ENDEF
                           A   843    .DEFINE "type"
                           A   844    .VALUE 3
                           A   845    .CLASS 8
                           A   846    .TYPE 12
                           A   847    .ENDEF
                           A   848    .ENDREC "NONAME11"
                           A   849    .BEGREC "NONAME13",60
                           A   850    .DEFINE "x_dim"
                           A   851    .VALUE 0
                           A   852    .CLASS 8
                           A   853    .TYPE 3
                           A   854    .ENDEF
                           A   855    .DEFINE "y_dim"
                           A   856    .VALUE 2
                           A   857    .CLASS 8
                           A   858    .TYPE 3
                           A   859    .ENDEF
                           A   860    .DEFINE "touch"
                           A   861    .VALUE 4
                           A   862    .CLASS 8
                           A   863    .TAG "NONAME6"
                           A   864    .TYPE 8
                           A   865    .ENDEF
                           A   866    .DEFINE "next_window"
                           A   867    .VALUE 9
                           A   868    .CLASS 8
                           A   869    .TAG "S_WINDOW"
                           A   870    .TYPE 40
                           A   871    .ENDEF
                           A   872    .DEFINE "active_window"
                           A   873    .VALUE 12
                           A   874    .CLASS 8
                           A   875    .TAG "S_WINDOW"
                           A   876    .TYPE 40
                           A   877    .ENDEF
                           A   878    .DEFINE "last_window"
                           A   879    .VALUE 15
                           A   880    .CLASS 8
                           A   881    .TAG "S_WINDOW"
                           A   882    .TYPE 40
                           A   883    .ENDEF
                           A   884    .DEFINE "console"
                           A   885    .VALUE 18
                           A   886    .CLASS 8
                           A   887    .TAG "NONAME12"
                           A   888    .TYPE 8
                           A   889    .ENDEF
                           A   890    .DEFINE "font"
                           A   891    .VALUE 34
                           A   892    .CLASS 8
                           A   893    .TAG "NONAME1"
                           A   894    .TYPE 8
                           A   895    .ENDEF
                           A   896    .DEFINE "char_h_space"
                           A   897    .VALUE 51
                           A   898    .CLASS 8
                           A   899    .TYPE 2
                           A   900    .ENDEF
                           A   901    .DEFINE "char_v_space"
                           A   902    .VALUE 52
                           A   903    .CLASS 8
                           A   904    .TYPE 2
                           A   905    .ENDEF
                           A   906    .DEFINE "fore_color"
                           A   907    .VALUE 53
                           A   908    .CLASS 8
                           A   909    .TYPE 13
                           A   910    .ENDEF
                           A   911    .DEFINE "back_color"
                           A   912    .VALUE 55
                           A   913    .CLASS 8
                           A   914    .TYPE 13
                           A   915    .ENDEF
                           A   916    .DEFINE "desktop_color"
                           A   917    .VALUE 57
                           A   918    .CLASS 8
                           A   919    .TYPE 13
                           A   920    .ENDEF
                           A   921    .DEFINE "state"
                           A   922    .VALUE 59
                           A   923    .CLASS 8
                           A   924    .TYPE 12
                           A   925    .ENDEF
                           A   926    .ENDREC "NONAME13"
                           A   927    .BEGREC "NONAME12",16
                           A   928    .DEFINE "x_pos"
                           A   929    .VALUE 0
                           A   930    .CLASS 8
                           A   931    .TYPE 3
                           A   932    .ENDEF
                           A   933    .DEFINE "y_pos"
                           A   934    .VALUE 2
                           A   935    .CLASS 8
                           A   936    .TYPE 3
                           A   937    .ENDEF
                           A   938    .DEFINE "x_start"
                           A   939    .VALUE 4
                           A   940    .CLASS 8
                           A   941    .TYPE 3
                           A   942    .ENDEF
                           A   943    .DEFINE "y_start"
                           A   944    .VALUE 6
                           A   945    .CLASS 8
                           A   946    .TYPE 3
                           A   947    .ENDEF
                           A   948    .DEFINE "x_end"
                           A   949    .VALUE 8
                           A   950    .CLASS 8
                           A   951    .TYPE 3
                           A   952    .ENDEF
                           A   953    .DEFINE "y_end"
                           A   954    .VALUE 10
                           A   955    .CLASS 8
                           A   956    .TYPE 3
                           A   957    .ENDEF
                           A   958    .DEFINE "fore_color"
                           A   959    .VALUE 12
                           A   960    .CLASS 8
                           A   961    .TYPE 13
                           A   962    .ENDEF
                           A   963    .DEFINE "back_color"
                           A   964    .VALUE 14
                           A   965    .CLASS 8
                           A   966    .TYPE 13
                           A   967    .ENDEF
                           A   968    .ENDREC "NONAME12"
                           A   969    	SEGMENT BSS
                           A   970    .BEGREC "Point",8
                           A   971    .DEFINE "x"
                           A   972    .VALUE 0
                           A   973    .CLASS 8
                           A   974    .TYPE 5
                           A   975    .ENDEF
                           A   976    .DEFINE "y"
                           A   977    .VALUE 4
                           A   978    .CLASS 8
                           A   979    .TYPE 5
                           A   980    .ENDEF
                           A   981    .ENDREC "Point"
                           A   982    .BEGREC "NONAME0",28
                           A   983    .DEFINE "An"
                           A   984    .VALUE 0
                           A   985    .CLASS 8
                           A   986    .TYPE 5
                           A   987    .ENDEF
                           A   988    .DEFINE "Bn"
                           A   989    .VALUE 4
                           A   990    .CLASS 8
                           A   991    .TYPE 5
                           A   992    .ENDEF
                           A   993    .DEFINE "Cn"
                           A   994    .VALUE 8
                           A   995    .CLASS 8
                           A   996    .TYPE 5
                           A   997    .ENDEF
                           A   998    .DEFINE "Dn"
                           A   999    .VALUE 12
                           A  1000    .CLASS 8
                           A  1001    .TYPE 5
                           A  1002    .ENDEF
                           A  1003    .DEFINE "En"
                           A  1004    .VALUE 16
                           A  1005    .CLASS 8
                           A  1006    .TYPE 5
                           A  1007    .ENDEF
                           A  1008    .DEFINE "Fn"
                           A  1009    .VALUE 20
                           A  1010    .CLASS 8
                           A  1011    .TYPE 5
                           A  1012    .ENDEF
                           A  1013    .DEFINE "Divider"
                           A  1014    .VALUE 24
                           A  1015    .CLASS 8
                           A  1016    .TYPE 5
                           A  1017    .ENDEF
                           A  1018    .ENDREC "NONAME0"
                           A  1019    .BEGREC "EVENTGROUPPARAMS_t",3
                           A  1020    .DEFINE "eEventsReceived"
                           A  1021    .VALUE 0
                           A  1022    .CLASS 8
                           A  1023    .TYPE 14
                           A  1024    .ENDEF
                           A  1025    .ENDREC "EVENTGROUPPARAMS_t"
                           A  1026    .BEGREC "RZK_EG_CB",29
                           A  1027    .DEFINE "CB"
                           A  1028    .VALUE 0
                           A  1029    .CLASS 8
                           A  1030    .DIM 29
                           A  1031    .TYPE 108
                           A  1032    .ENDEF
                           A  1033    .ENDREC "RZK_EG_CB"
000002                     A  1034    _ghRA88775:
000002                     A  1035    	DS	3
                           A  1036    .DEFINE "ghRA88775"
                           A  1037    .ALIAS "_ghRA88775"
                           A  1038    .CLASS 83
                           A  1039    .VALUE _ghRA88775
                           A  1040    .TYPE 33
                           A  1041    .ENDEF
000005                     A  1042    _ghRA8875int_isr:
000005                     A  1043    	DS	3
                           A  1044    .DEFINE "ghRA8875int_isr"
                           A  1045    .ALIAS "_ghRA8875int_isr"
                           A  1046    .CLASS 83
                           A  1047    .VALUE _ghRA8875int_isr
                           A  1048    .TYPE 33
                           A  1049    .ENDEF
000008                     A  1050    _ehRA8875int:
000008                     A  1051    	DS	3
                           A  1052    .DEFINE "ehRA8875int"
                           A  1053    .ALIAS "_ehRA8875int"
                           A  1054    .CLASS 83
                           A  1055    .VALUE _ehRA8875int
                           A  1056    .TYPE 33
                           A  1057    .ENDEF
00000B                     A  1058    _i_text_ptr:
00000B                     A  1059    	DS	3
                           A  1060    .DEFINE "i_text_ptr"
                           A  1061    .ALIAS "_i_text_ptr"
                           A  1062    .CLASS 83
                           A  1063    .VALUE _i_text_ptr
                           A  1064    .TYPE 194
                           A  1065    .ENDEF
00000E                     A  1066    _i_isFont:
00000E                     A  1067    	DS	1
                           A  1068    .DEFINE "i_isFont"
                           A  1069    .ALIAS "_i_isFont"
                           A  1070    .CLASS 83
                           A  1071    .VALUE _i_isFont
                           A  1072    .TYPE 12
                           A  1073    .ENDEF
00000F                     A  1074    _mygui:
00000F                     A  1075    	DS	60
                           A  1076    .DEFINE "mygui"
                           A  1077    .ALIAS "_mygui"
                           A  1078    .CLASS 83
                           A  1079    .VALUE _mygui
                           A  1080    .TAG "NONAME13"
                           A  1081    .TYPE 8
                           A  1082    .ENDEF
00004B                     A  1083    _testOBJ:
00004B                     A  1084    	DS	432
                           A  1085    .DEFINE "testOBJ"
                           A  1086    .ALIAS "_testOBJ"
                           A  1087    .CLASS 83
                           A  1088    .VALUE _testOBJ
                           A  1089    .DIM 16
                           A  1090    .TAG "S_OBJECT"
                           A  1091    .TYPE 104
                           A  1092    .ENDEF
0001FB                     A  1093    _testBut:
0001FB                     A  1094    	DS	304
                           A  1095    .DEFINE "testBut"
                           A  1096    .ALIAS "_testBut"
                           A  1097    .CLASS 83
                           A  1098    .VALUE _testBut
                           A  1099    .DIM 16
                           A  1100    .TAG "NONAME8"
                           A  1101    .TYPE 104
                           A  1102    .ENDEF
00032B                     A  1103    _testWND:
00032B                     A  1104    	DS	39
                           A  1105    .DEFINE "testWND"
                           A  1106    .ALIAS "_testWND"
                           A  1107    .CLASS 83
                           A  1108    .VALUE _testWND
                           A  1109    .TAG "S_WINDOW"
                           A  1110    .TYPE 8
                           A  1111    .ENDEF
                           A  1112    ;    1	#include <stdio.h>
                           A  1113    ;    2	#include <string.h>
                           A  1114    ;    3	#include "ZSysgen.h"
                           A  1115    ;    4	#include "ZTypes.h"
                           A  1116    ;    5	#include "ZThread.h"
                           A  1117    ;    6	#include "ZDevice.h"
                           A  1118    ;    7	#include "ZInterrupt.h"
                           A  1119    ;    8	#include <ez80.h>
                           A  1120    ;    9	#include "Adafruit_RA8875.h"
                           A  1121    ;   10	#include "ZEventgroup.h"
                           A  1122    ;   11	#include "ugui.h"
                           A  1123    ;   12	#include "spi_my.h"
                           A  1124    ;   13	
                           A  1125    ;   14	#define RA8875_CMD_REG      (*(volatile
                           A  1126    ;   15	#define RA8875_DATA_REG   (*(volatile u
                           A  1127    ;   16	
                           A  1128    ;   17	RZK_THREADHANDLE_t ghRA88775,/*ghRA8875
                           A  1129    ;   18	#define STACK_SIZE		2048	/** sta
                           A  1130    ;   19	#define RA8875_PRIORITY	5	    /** thr
                           A  1131    ;   20	#define RA8875Isr_PRIORITY	3	    /**
                           A  1132    ;   21	RZK_EVENTHANDLE_t ehRA8875int;
                           A  1133    ;   22	
                           A  1134    ;   23	volatile const char* i_text_ptr;
                           A  1135    ;   24	UINT8 i_isFont;
                           A  1136    ;   25	UG_GUI mygui;
                           A  1137    ;   26	UG_OBJECT testOBJ[16];
                           A  1138    ;   27	UG_BUTTON testBut[16];
                           A  1139    ;   28	UG_WINDOW testWND;
                           A  1140    	SEGMENT CODE
                           A  1141    ;   29	#define TestIntFont
                           A  1142    ;   30	
                           A  1143    ;   31	void HwIni(void);
                           A  1144    ;   32	void SwIni();
                           A  1145    ;   33	void RA8875Task(void);
                           A  1146    ;   34	void RA8875intIsrTask(void);
                           A  1147    ;   35	//void RA8875waitIsrTask(void);
                           A  1148    ;   36	void displayOn(UINT8 on);
                           A  1149    ;   37	void PLLinit(void);
                           A  1150    ;   38	void PWM1config(UINT8 on, UINT8 clock);
                           A  1151    ;   39	void PWM2config(UINT8 on, UINT8 clock);
                           A  1152    ;   40	void PWMsetup(UINT8 pw,UINT8 on, UINT8 
                           A  1153    ;   41	void backlight(UINT8 on);
                           A  1154    ;   42	void brightness(UINT8 val);
                           A  1155    ;   43	void writeReg(UINT8 reg, UINT8 data);
                           A  1156    ;   44	UINT8 readReg(UINT8 reg);
                           A  1157    ;   45	void  writeCommand(UINT8 d);
                           A  1158    ;   46	void  writeData(UINT8 d);
                           A  1159    ;   47	UINT8 waitPoll(UINT8 regname, UINT8 wai
                           A  1160    ;   48	void graphicsMode(void);
                           A  1161    ;   49	void textMode(void);
                           A  1162    ;   50	void textSetCursor(UINT16 x, UINT16 y);
                           A  1163    ;   51	void textTransparent(UINT16 foreColor);
                           A  1164    ;   52	void textWrite(const char* buf);
                           A  1165    ;   53	void textColor(UINT16 foreColor, UINT16
                           A  1166    ;   54	void textEnlarge(UINT8 scale);
                           A  1167    ;   55	void fillScreen(UINT16 color);
                           A  1168    ;   56	void rectHelper(INT16 x, INT16 y, INT16
                           A  1169    ;   57	void circleHelper(INT16 x0, INT16 y0, I
                           A  1170    ;   58	void ellipseHelper(INT16 xCenter, INT16
                           A  1171    ;   59	void triangleHelper(INT16 x0, INT16 y0,
                           A  1172    ;   60	void curveHelper(INT16 xCenter, INT16 y
                           A  1173    ;   61	void rectCornerHelper(INT16 x, INT16 y,
                           A  1174    ;   62	void setXY(UINT16 x, UINT16 y);
                           A  1175    ;   63	void pushPixels(UINT32 num, UINT16 p);
                           A  1176    ;   64	void DrawPixel(INT16 x, INT16 y, UINT16
                           A  1177    ;   65	void DrawNextHPixel(UINT16 color);
                           A  1178    ;   66	void DrawLine(INT16 x0, INT16 y0, INT16
                           A  1179    ;   67	void fillRect(void);
                           A  1180    ;   68	void testButton(UG_MESSAGE* msg);
                           A  1181    ;   69	
                           A  1182    ;   70	extern void ra8875int_isr(void);//PD3
                           A  1183    ;   71	//extern void ra8875wait_isr(void);//PD
                           A  1184    ;   72	extern void InitUART(void);
                           A  1185    ;   73	
                           A  1186    ;   74	void switchArial16(void);
                           A  1187    ;   75	void switchTimes16(void);
                           A  1188    ;   76	void switchArial24(void);
                           A  1189    ;   77	void switchTimes24(void);
                           A  1190    ;   78	void switchArial32(void);
                           A  1191    ;   79	void switchTimes32(void);
                           A  1192    ;   80	
                           A  1193    ;   81	void RA8875Ini(void)
                           A  1194    ;   82	{
000000                     A  1195    _RA8875Ini:
                           A  1196    .DEFINE "_RA8875Ini"
                           A  1197    
                           A  1198    .VALUE _RA8875Ini
                           A  1199    
                           A  1200    .CLASS 2
                           A  1201    
                           A  1202    .TYPE 65
                           A  1203    
                           A  1204    .ENDEF
                           A  1205    
                           A  1206    .BEGFUNC "RA8875Ini",82,"_RA8875Ini"
                           A  1207    
000000 DDE5                A  1208    	PUSH	IX
000002 DD210000 00         A  1209    	LD	IX,0
000007 DD39                A  1210    	ADD	IX,SP
                           A  1211    ;   83		DDF_STATUS_t status;
                           A  1212    ;   84		InitUART();
                           A  1213    .LINE 84
                           A  1214    
000009 CD 00 00 00         A  1215    	CALL	_InitUART
                           A  1216    ;   85		//spi_open(UG_TouchUpdate);
                           A  1217    ;   86		RZKInstallInterruptHandler(ra8875in
                           A  1218    .LINE 86
                           A  1219    
00000D 01EC0000            A  1220    	LD	BC,236
000011 C5                  A  1221    	PUSH	BC
000012 01 00 00 00         A  1222    	LD	BC,_ra8875int_isr
000016 C5                  A  1223    	PUSH	BC
000017 CD 00 00 00         A  1224    	CALL	_RZKInstallInterruptHandler
00001B C1                  A  1225    	POP	BC
00001C C1                  A  1226    	POP	BC
                           A  1227    ;   87		//RZKInstallInterruptHandler(ra8875
                           A  1228    ;   88		
                           A  1229    ;   89		ghRA8875int_isr = RZKCreateThreadEn
                           A  1230    ;   90						(RZK_PTR_t)RA8875in
                           A  1231    ;   91						NULL,
                           A  1232    ;   92						STACK_SIZE,
                           A  1233    ;   93						RA8875Isr_PRIORITY,
                           A  1234    ;   94						0, 
                           A  1235    ;   95						RZK_THREAD_PREEMPTI
                           A  1236    .LINE 95
                           A  1237    
00001D 01000000            A  1238    	LD	BC,0
000021 C5                  A  1239    	PUSH	BC
000022 01840000            A  1240    	LD	BC,132
000026 C5                  A  1241    	PUSH	BC
000027 01000000            A  1242    	LD	BC,0
00002B C5                  A  1243    	PUSH	BC
00002C 01030000            A  1244    	LD	BC,3
000030 C5                  A  1245    	PUSH	BC
000031 01000800            A  1246    	LD	BC,2048
000035 C5                  A  1247    	PUSH	BC
000036 01000000            A  1248    	LD	BC,0
00003A C5                  A  1249    	PUSH	BC
00003B 01 55 08 00         A  1250    	LD	BC,_RA8875intIsrTask
00003F C5                  A  1251    	PUSH	BC
000040 01 00 00 00         A  1252    	LD	BC,L__0
000044 C5                  A  1253    	PUSH	BC
000045 CD 00 00 00         A  1254    	CALL	_RZKCreateThreadEnhanced
000049 FD211800 00         A  1255    	LD	IY,24
00004E FD39                A  1256    	ADD	IY,SP
000050 FDF9                A  1257    	LD	SP,IY
000052 22 05 00 00         A  1258    	LD	(_ghRA8875int_isr),HL
                           A  1259    ;   96		if( ghRA8875int_isr == NULL )
                           A  1260    .LINE 96
                           A  1261    
000056 2A 05 00 00         A  1262    	LD	HL,(_ghRA8875int_isr)
00005A CD 00 00 00         A  1263    	CALL	__icmpzero
00005E 20 18               A  1264    	JR	NZ,L_1
                           A  1265    ;   97		{
                           A  1266    ;   98			printf("\nUnable to create the 
                           A  1267    .LINE 98
                           A  1268    
000060 01 0B 00 00         A  1269    	LD	BC,L__2
000064 C5                  A  1270    	PUSH	BC
000065 CD 00 00 00         A  1271    	CALL	_printf
000069 C1                  A  1272    	POP	BC
                           A  1273    ;   99			RZKFormatError( RZKGetErrorNum(
                           A  1274    .LINE 99
                           A  1275    
00006A CD 00 00 00         A  1276    	CALL	_RZKGetErrorNum
00006E E5                  A  1277    	PUSH	HL
00006F CD 00 00 00         A  1278    	CALL	_RZKFormatError
000073 C1                  A  1279    	POP	BC
                           A  1280    ;  100			return ;
                           A  1281    .LINE 100
                           A  1282    
000074 C3 03 01 00         A  1283    	JR	L_5
                           A  1284    ;  101		}
000078                     A  1285    L_1:
                           A  1286    .LINE 101
                           A  1287    
                           A  1288    ;  102	    
                           A  1289    ;  103		/*ghRA8875wait_isr = RZKCreateThrea
                           A  1290    ;  104						(RZK_PTR_t)RA8875wa
                           A  1291    ;  105						NULL,
                           A  1292    ;  106						STACK_SIZE,
                           A  1293    ;  107						RA8875Isr_PRIORITY,
                           A  1294    ;  108						0, 
                           A  1295    ;  109						RZK_THREAD_PREEMPTI
                           A  1296    ;  110		if( ghRA8875wait_isr == NULL )
                           A  1297    ;  111		{
                           A  1298    ;  112			printf("\nUnable to create the 
                           A  1299    ;  113			RZKFormatError( RZKGetErrorNum(
                           A  1300    ;  114			return ;
                           A  1301    ;  115		}*/
                           A  1302    ;  116	
                           A  1303    ;  117		ghRA88775 = RZKCreateThreadEnhanced
                           A  1304    ;  118						(RZK_PTR_t)RA8875Ta
                           A  1305    ;  119						NULL,
                           A  1306    ;  120						STACK_SIZE,
                           A  1307    ;  121						RA8875_PRIORITY,
                           A  1308    ;  122						0, 
                           A  1309    ;  123						RZK_THREAD_PREEMPTI
                           A  1310    .LINE 123
                           A  1311    
000078 01000000            A  1312    	LD	BC,0
00007C C5                  A  1313    	PUSH	BC
00007D 01060000            A  1314    	LD	BC,6
000081 C5                  A  1315    	PUSH	BC
000082 01000000            A  1316    	LD	BC,0
000086 C5                  A  1317    	PUSH	BC
000087 01050000            A  1318    	LD	BC,5
00008B C5                  A  1319    	PUSH	BC
00008C 01000800            A  1320    	LD	BC,2048
000090 C5                  A  1321    	PUSH	BC
000091 01000000            A  1322    	LD	BC,0
000095 C5                  A  1323    	PUSH	BC
000096 01 CA 04 00         A  1324    	LD	BC,_RA8875Task
00009A C5                  A  1325    	PUSH	BC
00009B 01 3A 00 00         A  1326    	LD	BC,L__3
00009F C5                  A  1327    	PUSH	BC
0000A0 CD 00 00 00         A  1328    	CALL	_RZKCreateThreadEnhanced
0000A4 FD211800 00         A  1329    	LD	IY,24
0000A9 FD39                A  1330    	ADD	IY,SP
0000AB FDF9                A  1331    	LD	SP,IY
0000AD 22 02 00 00         A  1332    	LD	(_ghRA88775),HL
                           A  1333    ;  124		if( ghRA88775 == NULL )
                           A  1334    .LINE 124
                           A  1335    
0000B1 2A 02 00 00         A  1336    	LD	HL,(_ghRA88775)
0000B5 CD 00 00 00         A  1337    	CALL	__icmpzero
0000B9 20 16               A  1338    	JR	NZ,L_3
                           A  1339    ;  125		{
                           A  1340    ;  126			printf("\nUnable to create the 
                           A  1341    .LINE 126
                           A  1342    
0000BB 01 41 00 00         A  1343    	LD	BC,L__5
0000BF C5                  A  1344    	PUSH	BC
0000C0 CD 00 00 00         A  1345    	CALL	_printf
0000C4 C1                  A  1346    	POP	BC
                           A  1347    ;  127			RZKFormatError( RZKGetErrorNum(
                           A  1348    .LINE 127
                           A  1349    
0000C5 CD 00 00 00         A  1350    	CALL	_RZKGetErrorNum
0000C9 E5                  A  1351    	PUSH	HL
0000CA CD 00 00 00         A  1352    	CALL	_RZKFormatError
0000CE C1                  A  1353    	POP	BC
                           A  1354    ;  128			return ;
                           A  1355    .LINE 128
                           A  1356    
0000CF 18 32               A  1357    	JR	L_5
                           A  1358    ;  129		}    
0000D1                     A  1359    L_3:
                           A  1360    .LINE 129
                           A  1361    
                           A  1362    ;  130		ehRA8875int=RZKCreateEventGroup(( R
                           A  1363    .LINE 130
                           A  1364    
0000D1 01010000            A  1365    	LD	BC,1
0000D5 C5                  A  1366    	PUSH	BC
0000D6 01 66 00 00         A  1367    	LD	BC,L__6
0000DA C5                  A  1368    	PUSH	BC
0000DB CD 00 00 00         A  1369    	CALL	_RZKCreateEventGroup
0000DF C1                  A  1370    	POP	BC
0000E0 C1                  A  1371    	POP	BC
0000E1 22 08 00 00         A  1372    	LD	(_ehRA8875int),HL
                           A  1373    ;  131		if( ehRA8875int == NULL )
                           A  1374    .LINE 131
                           A  1375    
0000E5 2A 08 00 00         A  1376    	LD	HL,(_ehRA8875int)
0000E9 CD 00 00 00         A  1377    	CALL	__icmpzero
0000ED 20 14               A  1378    	JR	NZ,L_5
                           A  1379    ;  132		{
                           A  1380    ;  133			printf("\nUnable to create the 
                           A  1381    .LINE 133
                           A  1382    
0000EF 01 71 00 00         A  1383    	LD	BC,L__8
0000F3 C5                  A  1384    	PUSH	BC
0000F4 CD 00 00 00         A  1385    	CALL	_printf
0000F8 C1                  A  1386    	POP	BC
                           A  1387    ;  134			RZKFormatError( RZKGetErrorNum(
                           A  1388    .LINE 134
                           A  1389    
0000F9 CD 00 00 00         A  1390    	CALL	_RZKGetErrorNum
0000FD E5                  A  1391    	PUSH	HL
0000FE CD 00 00 00         A  1392    	CALL	_RZKFormatError
000102 C1                  A  1393    	POP	BC
                           A  1394    ;  135			return ;
                           A  1395    ;  136		}  
                           A  1396    ;  137	}
000103                     A  1397    L_5:
                           A  1398    .LINE 137
                           A  1399    
000103 DDF9                A  1400    	LD	SP,IX
000105 DDE1                A  1401    	POP	IX
000107 C9                  A  1402    	RET	
                           A  1403    
                           A  1404    
                           A  1405    ;**************************** _RA8875Ini ******
                           A  1406    ;Name                         Addr/Register   S
                           A  1407    ;_ehRA8875int                        STATIC    
                           A  1408    ;_RZKCreateEventGroup                IMPORT  --
                           A  1409    ;_ghRA88775                          STATIC    
                           A  1410    ;_RA8875Task                         IMPORT  --
                           A  1411    ;_RZKGetErrorNum                     IMPORT  --
                           A  1412    ;_RZKFormatError                     IMPORT  --
                           A  1413    ;_printf                             IMPORT  --
                           A  1414    ;_ghRA8875int_isr                    STATIC    
                           A  1415    ;_RA8875intIsrTask                   IMPORT  --
                           A  1416    ;_RZKCreateThreadEnhanced            IMPORT  --
                           A  1417    ;_ra8875int_isr                      IMPORT  --
                           A  1418    ;_RZKInstallInterruptHandler         IMPORT  --
                           A  1419    ;_InitUART                           IMPORT  --
                           A  1420    
                           A  1421    
                           A  1422    ; Stack Frame Size: 6 (bytes)
                           A  1423    ;       Spill Code: 0 (instruction)
                           A  1424    
                           A  1425    
                           A  1426    .ENDFUNC "RA8875Ini",137,"_RA8875Ini"
                           A  1427    	SEGMENT STRSECT
000000                     A  1428    L__0:
000000 69524138 38373569   A  1429    	DB	"iRA8875int"
000008 6E74 
00000A 00                  A  1430    	DB	0
00000B                     A  1431    L__2:
00000B 0A                  A  1432    	DB	10
00000C 556E6162 6C652074   A  1433    	DB	"Unable to create the RA8875 interrupt 
000014 6F206372 65617465 
00001C 20746865 20524138 
000024 38373520 696E7465 
00002C 72727570 74207468 
000034 72656164 20 
000039 00                  A  1434    	DB	0
00003A                     A  1435    L__3:
00003A 52413838 3735       A  1436    	DB	"RA8875"
000040 00                  A  1437    	DB	0
000041                     A  1438    L__5:
000041 0A                  A  1439    	DB	10
000042 556E6162 6C652074   A  1440    	DB	"Unable to create the RA8875 thread "
00004A 6F206372 65617465 
000052 20746865 20524138 
00005A 38373520 74687265 
000062 616420 
000065 00                  A  1441    	DB	0
000066                     A  1442    L__6:
000066 65524138 38373569   A  1443    	DB	"eRA8875int"
00006E 6E74 
000070 00                  A  1444    	DB	0
000071                     A  1445    L__8:
000071 0A                  A  1446    	DB	10
000072 556E6162 6C652074   A  1447    	DB	"Unable to create the event group RA887
00007A 6F206372 65617465 
000082 20746865 20657665 
00008A 6E742067 726F7570 
000092 20524138 3837696E 
00009A 7420 
00009C 00                  A  1448    	DB	0
                           A  1449    	SEGMENT CODE
                           A  1450    ;  138	
                           A  1451    ;  139	void SwIni(void)
                           A  1452    ;  140	{
000108                     A  1453    _SwIni:
                           A  1454    .DEFINE "_SwIni"
                           A  1455    
                           A  1456    .VALUE _SwIni
                           A  1457    
                           A  1458    .CLASS 2
                           A  1459    
                           A  1460    .TYPE 65
                           A  1461    
                           A  1462    .ENDEF
                           A  1463    
                           A  1464    .BEGFUNC "SwIni",140,"_SwIni"
                           A  1465    
                           A  1466    .LINE 140
                           A  1467    
                           A  1468    .DEFINE "hsync_finetune"
                           A  1469    
                           A  1470    .CLASS 65
                           A  1471    
                           A  1472    .VALUE -1
                           A  1473    
                           A  1474    .TYPE 12
                           A  1475    
                           A  1476    .ENDEF
                           A  1477    
                           A  1478    .DEFINE "hsync_start"
                           A  1479    
                           A  1480    .CLASS 65
                           A  1481    
                           A  1482    .VALUE -2
                           A  1483    
                           A  1484    .TYPE 12
                           A  1485    
                           A  1486    .ENDEF
                           A  1487    
                           A  1488    .DEFINE "hsync_pw"
                           A  1489    
                           A  1490    .CLASS 65
                           A  1491    
                           A  1492    .VALUE -3
                           A  1493    
                           A  1494    .TYPE 12
                           A  1495    
                           A  1496    .ENDEF
                           A  1497    
                           A  1498    .DEFINE "pixclk"
                           A  1499    
                           A  1500    .CLASS 65
                           A  1501    
                           A  1502    .VALUE -4
                           A  1503    
                           A  1504    .TYPE 12
                           A  1505    
                           A  1506    .ENDEF
                           A  1507    
                           A  1508    .DEFINE "hsync_nondisp"
                           A  1509    
                           A  1510    .CLASS 65
                           A  1511    
                           A  1512    .VALUE -5
                           A  1513    
                           A  1514    .TYPE 12
                           A  1515    
                           A  1516    .ENDEF
                           A  1517    
                           A  1518    .DEFINE "vsync_pw"
                           A  1519    
                           A  1520    .CLASS 65
                           A  1521    
                           A  1522    .VALUE -6
                           A  1523    
                           A  1524    .TYPE 12
                           A  1525    
                           A  1526    .ENDEF
                           A  1527    
                           A  1528    .DEFINE "vsync_nondisp"
                           A  1529    
                           A  1530    .CLASS 65
                           A  1531    
                           A  1532    .VALUE -8
                           A  1533    
                           A  1534    .TYPE 13
                           A  1535    
                           A  1536    .ENDEF
                           A  1537    
                           A  1538    .DEFINE "vsync_start"
                           A  1539    
                           A  1540    .CLASS 65
                           A  1541    
                           A  1542    .VALUE -10
                           A  1543    
                           A  1544    .TYPE 13
                           A  1545    
                           A  1546    .ENDEF
                           A  1547    
000108 DDE5                A  1548    	PUSH	IX
00010A DD210000 00         A  1549    	LD	IX,0
00010F DD39                A  1550    	ADD	IX,SP
000111 C5                  A  1551    	PUSH	BC
000112 C5                  A  1552    	PUSH	BC
000113 C5                  A  1553    	PUSH	BC
000114 3B                  A  1554    	DEC	SP
                           A  1555    ;  141	  /* Timing values */
                           A  1556    ;  142		UINT8 pixclk;
                           A  1557    ;  143		UINT8 hsync_start;
                           A  1558    ;  144		UINT8 hsync_pw;
                           A  1559    ;  145		UINT8 hsync_finetune;
                           A  1560    ;  146		UINT8 hsync_nondisp;
                           A  1561    ;  147		UINT8 vsync_pw; 
                           A  1562    ;  148		UINT16 vsync_nondisp;
                           A  1563    ;  149		UINT16 vsync_start;
                           A  1564    ;  150	
                           A  1565    ;  151		PLLinit();
                           A  1566    .LINE 151
                           A  1567    
000115 CD 7C 08 00         A  1568    	CALL	_PLLinit
                           A  1569    ;  152		writeReg(RA8875_SYSR, RA8875_SYSR_1
                           A  1570    .LINE 152
                           A  1571    
000119 010C0000            A  1572    	LD	BC,12
00011D C5                  A  1573    	PUSH	BC
00011E 01100000            A  1574    	LD	BC,16
000122 C5                  A  1575    	PUSH	BC
000123 CD 4E 1F 00         A  1576    	CALL	_writeReg
000127 C1                  A  1577    	POP	BC
000128 C1                  A  1578    	POP	BC
                           A  1579    ;  153	
                           A  1580    ;  154	
                           A  1581    ;  155	  /* Set the correct values for the dis
                           A  1582    ;  156	 // if (_size == RA8875_480x272) 
                           A  1583    ;  157	 // {
                           A  1584    ;  158	 //   pixclk          = RA8875_PCSR_PDA
                           A  1585    ;  159	 //   hsync_nondisp   = 10;
                           A  1586    ;  160	 //   hsync_start     = 8;
                           A  1587    ;  161	 //   hsync_pw        = 48;
                           A  1588    ;  162	 //   hsync_finetune  = 0;
                           A  1589    ;  163	 //   vsync_nondisp   = 3;
                           A  1590    ;  164	 //   vsync_start     = 8;
                           A  1591    ;  165	 //   vsync_pw        = 10;
                           A  1592    ;  166	 // } 
                           A  1593    ;  167	 // else // (_size == RA8875_800x480)
                           A  1594    ;  168	 // {
                           A  1595    ;  169	    pixclk          = RA8875_PCSR_PDATL
                           A  1596    .LINE 169
                           A  1597    
000129 DD36FC81            A  1598    	LD	(IX+%FFFFFFFC),%81
                           A  1599    ;  170	    hsync_nondisp   = 32;//32
                           A  1600    .LINE 170
                           A  1601    
00012D DD36FB20            A  1602    	LD	(IX+%FFFFFFFB),%20
                           A  1603    ;  171	    hsync_start     = 24;//24
                           A  1604    .LINE 171
                           A  1605    
000131 DD36FE18            A  1606    	LD	(IX+%FFFFFFFE),%18
                           A  1607    ;  172	    hsync_pw        = 8;
                           A  1608    .LINE 172
                           A  1609    
000135 DD36FD08            A  1610    	LD	(IX+%FFFFFFFD),%8
                           A  1611    ;  173	    hsync_finetune  = 2;//2
                           A  1612    .LINE 173
                           A  1613    
000139 DD36FF02            A  1614    	LD	(IX+%FFFFFFFF),%2
                           A  1615    ;  174	    vsync_nondisp   = 13;//13
                           A  1616    .LINE 174
                           A  1617    
00013D DD36F80D            A  1618    	LD	(IX+%FFFFFFF8),%D
000141 DD36F900            A  1619    	LD	(IX+%FFFFFFF9),%0
                           A  1620    ;  175	    vsync_start     = 23;//23
                           A  1621    .LINE 175
                           A  1622    
000145 DD36F617            A  1623    	LD	(IX+%FFFFFFF6),%17
000149 DD36F700            A  1624    	LD	(IX+%FFFFFFF7),%0
                           A  1625    ;  176	    vsync_pw        = 10;
                           A  1626    .LINE 176
                           A  1627    
00014D DD36FA0A            A  1628    	LD	(IX+%FFFFFFFA),%A
                           A  1629    ;  177	 // }
                           A  1630    ;  178	
                           A  1631    ;  179		_brightness=60;
                           A  1632    .LINE 179
                           A  1633    
000151 3E3C                A  1634    	LD	A,%3C
000153 32 00 00 00         A  1635    	LD	(__brightness),A
                           A  1636    ;  180		_textScale=0;
                           A  1637    .LINE 180
                           A  1638    
000157 AF                  A  1639    	XOR	A,A
000158 32 01 00 00         A  1640    	LD	(__textScale),A
                           A  1641    ;  181	  
                           A  1642    ;  182		writeReg(RA8875_PCSR, pixclk);
                           A  1643    .LINE 182
                           A  1644    
00015C DD4EFC              A  1645    	LD	C,(IX+%FFFFFFFC)
00015F 0600                A  1646    	LD	B,%0
000161 C5                  A  1647    	PUSH	BC
000162 01040000            A  1648    	LD	BC,4
000166 C5                  A  1649    	PUSH	BC
000167 CD 4E 1F 00         A  1650    	CALL	_writeReg
00016B C1                  A  1651    	POP	BC
00016C C1                  A  1652    	POP	BC
                           A  1653    ;  183		RZKSuspendThread(ghRA88775,1);
                           A  1654    .LINE 183
                           A  1655    
00016D 01010000            A  1656    	LD	BC,1
000171 C5                  A  1657    	PUSH	BC
000172 ED4B 02 00 00       A  1658    	LD	BC,(_ghRA88775)
000177 C5                  A  1659    	PUSH	BC
000178 CD 00 00 00         A  1660    	CALL	_RZKSuspendThread
00017C C1                  A  1661    	POP	BC
00017D C1                  A  1662    	POP	BC
                           A  1663    ;  184	  
                           A  1664    ;  185	  /* Horizontal settings registers */
                           A  1665    ;  186		writeReg(RA8875_HDWR, (_width / 8) 
                           A  1666    .LINE 186
                           A  1667    
00017E ED4B 03 00 00       A  1668    	LD	BC,(__width)
000183 CD 00 00 00         A  1669    	CALL	__stoiu
000187 01080000            A  1670    	LD	BC,8
00018B CD 00 00 00         A  1671    	CALL	__idivs
00018F 2B                  A  1672    	DEC	HL
000190 4D                  A  1673    	LD	C,L
000191 0600                A  1674    	LD	B,%0
000193 C5                  A  1675    	PUSH	BC
000194 01140000            A  1676    	LD	BC,20
000198 C5                  A  1677    	PUSH	BC
000199 CD 4E 1F 00         A  1678    	CALL	_writeReg
00019D C1                  A  1679    	POP	BC
00019E C1                  A  1680    	POP	BC
                           A  1681    ;  187		writeReg(RA8875_HNDFTR, RA8875_HNDF
                           A  1682    .LINE 187
                           A  1683    
00019F DD4EFF              A  1684    	LD	C,(IX+%FFFFFFFF)
0001A2 0600                A  1685    	LD	B,%0
0001A4 C5                  A  1686    	PUSH	BC
0001A5 01150000            A  1687    	LD	BC,21
0001A9 C5                  A  1688    	PUSH	BC
0001AA CD 4E 1F 00         A  1689    	CALL	_writeReg
0001AE C1                  A  1690    	POP	BC
0001AF C1                  A  1691    	POP	BC
                           A  1692    ;  188		writeReg(RA8875_HNDR, (hsync_nondis
                           A  1693    .LINE 188
                           A  1694    
0001B0 DD7EFB              A  1695    	LD	A,(IX+%FFFFFFFB)
0001B3 B7ED62              A  1696    	UEXT	HL
0001B6 6F                  A  1697    	LD	L,A
0001B7 E5C1                A  1698    	LD	BC,HL
0001B9 DD7EFF              A  1699    	LD	A,(IX+%FFFFFFFF)
0001BC B7ED62              A  1700    	UEXT	HL
0001BF 6F                  A  1701    	LD	L,A
0001C0 E5D1                A  1702    	LD	DE,HL
0001C2 C5E1                A  1703    	LD	HL,BC
0001C4 B7                  A  1704    	OR	A,A
0001C5 ED52                A  1705    	SBC	HL,DE
0001C7 2B                  A  1706    	DEC	HL
0001C8 2B                  A  1707    	DEC	HL
0001C9 01080000            A  1708    	LD	BC,8
0001CD CD 00 00 00         A  1709    	CALL	__idivs
0001D1 4D                  A  1710    	LD	C,L
0001D2 0600                A  1711    	LD	B,%0
0001D4 C5                  A  1712    	PUSH	BC
0001D5 01160000            A  1713    	LD	BC,22
0001D9 C5                  A  1714    	PUSH	BC
0001DA CD 4E 1F 00         A  1715    	CALL	_writeReg
0001DE C1                  A  1716    	POP	BC
0001DF C1                  A  1717    	POP	BC
                           A  1718    ;  189		writeReg(RA8875_HSTR, hsync_start/8
                           A  1719    .LINE 189
                           A  1720    
0001E0 DD7EFE              A  1721    	LD	A,(IX+%FFFFFFFE)
0001E3 B7ED62              A  1722    	UEXT	HL
0001E6 6F                  A  1723    	LD	L,A
0001E7 01080000            A  1724    	LD	BC,8
0001EB CD 00 00 00         A  1725    	CALL	__idivs
0001EF 2B                  A  1726    	DEC	HL
0001F0 4D                  A  1727    	LD	C,L
0001F1 0600                A  1728    	LD	B,%0
0001F3 C5                  A  1729    	PUSH	BC
0001F4 01170000            A  1730    	LD	BC,23
0001F8 C5                  A  1731    	PUSH	BC
0001F9 CD 4E 1F 00         A  1732    	CALL	_writeReg
0001FD C1                  A  1733    	POP	BC
0001FE C1                  A  1734    	POP	BC
                           A  1735    ;  190		writeReg(RA8875_HPWR, RA8875_HPWR_L
                           A  1736    .LINE 190
                           A  1737    
0001FF DD7EFD              A  1738    	LD	A,(IX+%FFFFFFFD)
000202 B7ED62              A  1739    	UEXT	HL
000205 6F                  A  1740    	LD	L,A
000206 01080000            A  1741    	LD	BC,8
00020A CD 00 00 00         A  1742    	CALL	__idivs
00020E 2B                  A  1743    	DEC	HL
00020F 4D                  A  1744    	LD	C,L
000210 0600                A  1745    	LD	B,%0
000212 C5                  A  1746    	PUSH	BC
000213 01180000            A  1747    	LD	BC,24
000217 C5                  A  1748    	PUSH	BC
000218 CD 4E 1F 00         A  1749    	CALL	_writeReg
00021C C1                  A  1750    	POP	BC
00021D C1                  A  1751    	POP	BC
                           A  1752    ;  191	  
                           A  1753    ;  192	  /* Vertical settings registers */
                           A  1754    ;  193		writeReg(RA8875_VDHR0, (UINT16)(_he
                           A  1755    .LINE 193
                           A  1756    
00021E 3A 05 00 00         A  1757    	LD	A,(__height)
000222 47                  A  1758    	LD	B,A
000223 05                  A  1759    	DEC	B
000224 78                  A  1760    	LD	A,B
000225 4F                  A  1761    	LD	C,A
000226 0600                A  1762    	LD	B,%0
000228 C5                  A  1763    	PUSH	BC
000229 01190000            A  1764    	LD	BC,25
00022D C5                  A  1765    	PUSH	BC
00022E CD 4E 1F 00         A  1766    	CALL	_writeReg
000232 C1                  A  1767    	POP	BC
000233 C1                  A  1768    	POP	BC
                           A  1769    ;  194		writeReg(RA8875_VDHR1, (UINT16)(_he
                           A  1770    .LINE 194
                           A  1771    
000234 ED4B 05 00 00       A  1772    	LD	BC,(__height)
000239 CD 00 00 00         A  1773    	CALL	__stoiu
00023D 2B                  A  1774    	DEC	HL
00023E E5C1                A  1775    	LD	BC,HL
000240 CD 00 00 00         A  1776    	CALL	__stoiu
000244 3E08                A  1777    	LD	A,%8
000246 CD 00 00 00         A  1778    	CALL	__ishrs_b
00024A 4D                  A  1779    	LD	C,L
00024B 0600                A  1780    	LD	B,%0
00024D C5                  A  1781    	PUSH	BC
00024E 011A0000            A  1782    	LD	BC,26
000252 C5                  A  1783    	PUSH	BC
000253 CD 4E 1F 00         A  1784    	CALL	_writeReg
000257 C1                  A  1785    	POP	BC
000258 C1                  A  1786    	POP	BC
                           A  1787    ;  195		writeReg(RA8875_VNDR0, vsync_nondis
                           A  1788    .LINE 195
                           A  1789    
000259 DD4EF8              A  1790    	LD	C,(IX+%FFFFFFF8)
00025C 0D                  A  1791    	DEC	C
00025D 0600                A  1792    	LD	B,%0
00025F C5                  A  1793    	PUSH	BC
000260 011B0000            A  1794    	LD	BC,27
000264 C5                  A  1795    	PUSH	BC
000265 CD 4E 1F 00         A  1796    	CALL	_writeReg
000269 C1                  A  1797    	POP	BC
00026A C1                  A  1798    	POP	BC
                           A  1799    ;  196		writeReg(RA8875_VNDR1, vsync_nondis
                           A  1800    .LINE 196
                           A  1801    
00026B DD07F8              A  1802    	LD	BC,(IX+%FFFFFFF8)
00026E CD 00 00 00         A  1803    	CALL	__stoiu
000272 3E08                A  1804    	LD	A,%8
000274 CD 00 00 00         A  1805    	CALL	__ishrs_b
000278 4D                  A  1806    	LD	C,L
000279 0600                A  1807    	LD	B,%0
00027B C5                  A  1808    	PUSH	BC
00027C 011C0000            A  1809    	LD	BC,28
000280 C5                  A  1810    	PUSH	BC
000281 CD 4E 1F 00         A  1811    	CALL	_writeReg
000285 C1                  A  1812    	POP	BC
000286 C1                  A  1813    	POP	BC
                           A  1814    ;  197		writeReg(RA8875_VSTR0, vsync_start-
                           A  1815    .LINE 197
                           A  1816    
000287 DD4EF6              A  1817    	LD	C,(IX+%FFFFFFF6)
00028A 0D                  A  1818    	DEC	C
00028B 0600                A  1819    	LD	B,%0
00028D C5                  A  1820    	PUSH	BC
00028E 011D0000            A  1821    	LD	BC,29
000292 C5                  A  1822    	PUSH	BC
000293 CD 4E 1F 00         A  1823    	CALL	_writeReg
000297 C1                  A  1824    	POP	BC
000298 C1                  A  1825    	POP	BC
                           A  1826    ;  198		writeReg(RA8875_VSTR1, vsync_start 
                           A  1827    .LINE 198
                           A  1828    
000299 DD07F6              A  1829    	LD	BC,(IX+%FFFFFFF6)
00029C CD 00 00 00         A  1830    	CALL	__stoiu
0002A0 3E08                A  1831    	LD	A,%8
0002A2 CD 00 00 00         A  1832    	CALL	__ishrs_b
0002A6 4D                  A  1833    	LD	C,L
0002A7 0600                A  1834    	LD	B,%0
0002A9 C5                  A  1835    	PUSH	BC
0002AA 011E0000            A  1836    	LD	BC,30
0002AE C5                  A  1837    	PUSH	BC
0002AF CD 4E 1F 00         A  1838    	CALL	_writeReg
0002B3 C1                  A  1839    	POP	BC
0002B4 C1                  A  1840    	POP	BC
                           A  1841    ;  199		writeReg(RA8875_VPWR, RA8875_VPWR_L
                           A  1842    .LINE 199
                           A  1843    
0002B5 DD4EFA              A  1844    	LD	C,(IX+%FFFFFFFA)
0002B8 0D                  A  1845    	DEC	C
0002B9 0600                A  1846    	LD	B,%0
0002BB C5                  A  1847    	PUSH	BC
0002BC 011F0000            A  1848    	LD	BC,31
0002C0 C5                  A  1849    	PUSH	BC
0002C1 CD 4E 1F 00         A  1850    	CALL	_writeReg
0002C5 C1                  A  1851    	POP	BC
0002C6 C1                  A  1852    	POP	BC
                           A  1853    ;  200	  
                           A  1854    ;  201	  /* Set active window X */
                           A  1855    ;  202		writeReg(RA8875_HSAW0, 0);         
                           A  1856    .LINE 202
                           A  1857    
0002C7 01000000            A  1858    	LD	BC,0
0002CB C5                  A  1859    	PUSH	BC
0002CC 01300000            A  1860    	LD	BC,48
0002D0 C5                  A  1861    	PUSH	BC
0002D1 CD 4E 1F 00         A  1862    	CALL	_writeReg
0002D5 C1                  A  1863    	POP	BC
0002D6 C1                  A  1864    	POP	BC
                           A  1865    ;  203		writeReg(RA8875_HSAW1, 0);
                           A  1866    .LINE 203
                           A  1867    
0002D7 01000000            A  1868    	LD	BC,0
0002DB C5                  A  1869    	PUSH	BC
0002DC 01310000            A  1870    	LD	BC,49
0002E0 C5                  A  1871    	PUSH	BC
0002E1 CD 4E 1F 00         A  1872    	CALL	_writeReg
0002E5 C1                  A  1873    	POP	BC
0002E6 C1                  A  1874    	POP	BC
                           A  1875    ;  204		writeReg(RA8875_HEAW0, (UINT16)(_wi
                           A  1876    .LINE 204
                           A  1877    
0002E7 3A 03 00 00         A  1878    	LD	A,(__width)
0002EB 47                  A  1879    	LD	B,A
0002EC 05                  A  1880    	DEC	B
0002ED 78                  A  1881    	LD	A,B
0002EE 4F                  A  1882    	LD	C,A
0002EF 0600                A  1883    	LD	B,%0
0002F1 C5                  A  1884    	PUSH	BC
0002F2 01340000            A  1885    	LD	BC,52
0002F6 C5                  A  1886    	PUSH	BC
0002F7 CD 4E 1F 00         A  1887    	CALL	_writeReg
0002FB C1                  A  1888    	POP	BC
0002FC C1                  A  1889    	POP	BC
                           A  1890    ;  205		writeReg(RA8875_HEAW1, (UINT16)(_wi
                           A  1891    .LINE 205
                           A  1892    
0002FD ED4B 03 00 00       A  1893    	LD	BC,(__width)
000302 CD 00 00 00         A  1894    	CALL	__stoiu
000306 2B                  A  1895    	DEC	HL
000307 E5C1                A  1896    	LD	BC,HL
000309 CD 00 00 00         A  1897    	CALL	__stoiu
00030D 3E08                A  1898    	LD	A,%8
00030F CD 00 00 00         A  1899    	CALL	__ishrs_b
000313 4D                  A  1900    	LD	C,L
000314 0600                A  1901    	LD	B,%0
000316 C5                  A  1902    	PUSH	BC
000317 01350000            A  1903    	LD	BC,53
00031B C5                  A  1904    	PUSH	BC
00031C CD 4E 1F 00         A  1905    	CALL	_writeReg
000320 C1                  A  1906    	POP	BC
000321 C1                  A  1907    	POP	BC
                           A  1908    ;  206	  
                           A  1909    ;  207	  /* Set active window Y */
                           A  1910    ;  208		writeReg(RA8875_VSAW0, 0);         
                           A  1911    .LINE 208
                           A  1912    
000322 01000000            A  1913    	LD	BC,0
000326 C5                  A  1914    	PUSH	BC
000327 01320000            A  1915    	LD	BC,50
00032B C5                  A  1916    	PUSH	BC
00032C CD 4E 1F 00         A  1917    	CALL	_writeReg
000330 C1                  A  1918    	POP	BC
000331 C1                  A  1919    	POP	BC
                           A  1920    ;  209		writeReg(RA8875_VSAW1, 0);  
                           A  1921    .LINE 209
                           A  1922    
000332 01000000            A  1923    	LD	BC,0
000336 C5                  A  1924    	PUSH	BC
000337 01330000            A  1925    	LD	BC,51
00033B C5                  A  1926    	PUSH	BC
00033C CD 4E 1F 00         A  1927    	CALL	_writeReg
000340 C1                  A  1928    	POP	BC
000341 C1                  A  1929    	POP	BC
                           A  1930    ;  210		writeReg(RA8875_VEAW0, (UINT16)(_he
                           A  1931    .LINE 210
                           A  1932    
000342 3A 05 00 00         A  1933    	LD	A,(__height)
000346 47                  A  1934    	LD	B,A
000347 05                  A  1935    	DEC	B
000348 78                  A  1936    	LD	A,B
000349 4F                  A  1937    	LD	C,A
00034A 0600                A  1938    	LD	B,%0
00034C C5                  A  1939    	PUSH	BC
00034D 01360000            A  1940    	LD	BC,54
000351 C5                  A  1941    	PUSH	BC
000352 CD 4E 1F 00         A  1942    	CALL	_writeReg
000356 C1                  A  1943    	POP	BC
000357 C1                  A  1944    	POP	BC
                           A  1945    ;  211		writeReg(RA8875_VEAW1, (UINT16)(_he
                           A  1946    .LINE 211
                           A  1947    
000358 ED4B 05 00 00       A  1948    	LD	BC,(__height)
00035D CD 00 00 00         A  1949    	CALL	__stoiu
000361 2B                  A  1950    	DEC	HL
000362 E5C1                A  1951    	LD	BC,HL
000364 CD 00 00 00         A  1952    	CALL	__stoiu
000368 3E08                A  1953    	LD	A,%8
00036A CD 00 00 00         A  1954    	CALL	__ishrs_b
00036E 4D                  A  1955    	LD	C,L
00036F 0600                A  1956    	LD	B,%0
000371 C5                  A  1957    	PUSH	BC
000372 01370000            A  1958    	LD	BC,55
000376 C5                  A  1959    	PUSH	BC
000377 CD 4E 1F 00         A  1960    	CALL	_writeReg
00037B C1                  A  1961    	POP	BC
00037C C1                  A  1962    	POP	BC
                           A  1963    ;  212	  
                           A  1964    ;  213	  /* ToDo: Setup touch panel? */
                           A  1965    ;  214		writeReg(RA8875_TPCR0, 0); 
                           A  1966    .LINE 214
                           A  1967    
00037D 01000000            A  1968    	LD	BC,0
000381 C5                  A  1969    	PUSH	BC
000382 01700000            A  1970    	LD	BC,112
000386 C5                  A  1971    	PUSH	BC
000387 CD 4E 1F 00         A  1972    	CALL	_writeReg
00038B C1                  A  1973    	POP	BC
00038C C1                  A  1974    	POP	BC
                           A  1975    ;  215	  /* Clear the entire window */
                           A  1976    ;  216		writeReg(RA8875_INTC2, 0);//RA8875_
                           A  1977    .LINE 216
                           A  1978    
00038D 01000000            A  1979    	LD	BC,0
000391 C5                  A  1980    	PUSH	BC
000392 01F10000            A  1981    	LD	BC,241
000396 C5                  A  1982    	PUSH	BC
000397 CD 4E 1F 00         A  1983    	CALL	_writeReg
00039B C1                  A  1984    	POP	BC
00039C C1                  A  1985    	POP	BC
                           A  1986    ;  217		writeReg(RA8875_INTC1, 0);
                           A  1987    .LINE 217
                           A  1988    
00039D 01000000            A  1989    	LD	BC,0
0003A1 C5                  A  1990    	PUSH	BC
0003A2 01F00000            A  1991    	LD	BC,240
0003A6 C5                  A  1992    	PUSH	BC
0003A7 CD 4E 1F 00         A  1993    	CALL	_writeReg
0003AB C1                  A  1994    	POP	BC
0003AC C1                  A  1995    	POP	BC
                           A  1996    ;  218		writeReg(RA8875_MCLR, RA8875_MCLR_S
                           A  1997    .LINE 218
                           A  1998    
0003AD 01800000            A  1999    	LD	BC,128
0003B1 C5                  A  2000    	PUSH	BC
0003B2 018E0000            A  2001    	LD	BC,142
0003B6 C5                  A  2002    	PUSH	BC
0003B7 CD 4E 1F 00         A  2003    	CALL	_writeReg
0003BB C1                  A  2004    	POP	BC
0003BC C1                  A  2005    	POP	BC
                           A  2006    ;  219		RZKSuspendThread(ghRA88775,50); 
                           A  2007    .LINE 219
                           A  2008    
0003BD 01320000            A  2009    	LD	BC,50
0003C1 C5                  A  2010    	PUSH	BC
0003C2 ED4B 02 00 00       A  2011    	LD	BC,(_ghRA88775)
0003C7 C5                  A  2012    	PUSH	BC
0003C8 CD 00 00 00         A  2013    	CALL	_RZKSuspendThread
0003CC C1                  A  2014    	POP	BC
0003CD C1                  A  2015    	POP	BC
                           A  2016    ;  220		backlight(1);
                           A  2017    .LINE 220
                           A  2018    
0003CE 01010000            A  2019    	LD	BC,1
0003D2 C5                  A  2020    	PUSH	BC
0003D3 CD E4 1D 00         A  2021    	CALL	_backlight
0003D7 C1                  A  2022    	POP	BC
                           A  2023    ;  221		displayOn(1);
                           A  2024    .LINE 221
                           A  2025    
0003D8 01010000            A  2026    	LD	BC,1
0003DC C5                  A  2027    	PUSH	BC
0003DD CD AE 1D 00         A  2028    	CALL	_displayOn
0003E1 C1                  A  2029    	POP	BC
                           A  2030    ;  222	}
                           A  2031    .LINE 222
                           A  2032    
0003E2 DDF9                A  2033    	LD	SP,IX
0003E4 DDE1                A  2034    	POP	IX
0003E6 C9                  A  2035    	RET	
                           A  2036    
                           A  2037    
                           A  2038    ;**************************** _SwIni **********
                           A  2039    ;Name                         Addr/Register   S
                           A  2040    ;_displayOn                          IMPORT  --
                           A  2041    ;_backlight                          IMPORT  --
                           A  2042    ;__height                            STATIC    
                           A  2043    ;__width                             STATIC    
                           A  2044    ;_ghRA88775                          STATIC    
                           A  2045    ;_RZKSuspendThread                   IMPORT  --
                           A  2046    ;__textScale                         STATIC    
                           A  2047    ;__brightness                        STATIC    
                           A  2048    ;_writeReg                           IMPORT  --
                           A  2049    ;_PLLinit                            IMPORT  --
                           A  2050    ;vsync_start                          IX-10    
                           A  2051    ;vsync_nondisp                         IX-8    
                           A  2052    ;vsync_pw                              IX-6    
                           A  2053    ;hsync_nondisp                         IX-5    
                           A  2054    ;pixclk                                IX-4    
                           A  2055    ;hsync_pw                              IX-3    
                           A  2056    ;hsync_start                           IX-2    
                           A  2057    ;hsync_finetune                        IX-1    
                           A  2058    
                           A  2059    
                           A  2060    ; Stack Frame Size: 16 (bytes)
                           A  2061    ;       Spill Code: 0 (instruction)
                           A  2062    
                           A  2063    
                           A  2064    .ENDFUNC "SwIni",222,"_SwIni"
                           A  2065    ;  223	
                           A  2066    ;  224	void HwIni(void)
                           A  2067    ;  225	{
0003E7                     A  2068    _HwIni:
                           A  2069    .DEFINE "_HwIni"
                           A  2070    
                           A  2071    .VALUE _HwIni
                           A  2072    
                           A  2073    .CLASS 2
                           A  2074    
                           A  2075    .TYPE 65
                           A  2076    
                           A  2077    .ENDEF
                           A  2078    
                           A  2079    .BEGFUNC "HwIni",225,"_HwIni"
                           A  2080    
0003E7 DDE5                A  2081    	PUSH	IX
0003E9 DD210000 00         A  2082    	LD	IX,0
0003EE DD39                A  2083    	ADD	IX,SP
                           A  2084    ;  226	/*
                           A  2085    ;  227	 
                           A  2086    ;  228	PD3    active low
                           A  2087    ;  229	DR=0,DDR=0,ALT1=1,ALT2=1
                           A  2088    ;  230	  active low  
                           A  2089    ;  231	DR=0,DDR=0,ALT1=0, ALT2=1	
                           A  2090    ;  232	PD4   RESET RA8875 open-drain
                           A  2091    ;  233	DR=1,DDR=0,ALT1=1,ALT2=0	
                           A  2092    ;  234	PD5  (1),   ~cs 
                           A  2093    ;  235	DR=1,DDR=0,ALT1=0,ALT2=0
                           A  2094    ;  236	PD6    active low	
                           A  2095    ;  237	DR=0,DDR=0,ALT1=1,ALT2=1
                           A  2096    ;  238	 active low  
                           A  2097    ;  239	DR=0,DDR=0,ALT1=0, ALT2=1	
                           A  2098    ;  240	*/
                           A  2099    ;  241	//PD_DR-0A2H,PD_ALT2-0A5H,PD_ALT1-0A4H,
                           A  2100    ;  242	#pragma asm
                           A  2101    ;  243		IN0	A,(0A2H)//PD_DR
                           A  2102    ;  244		RES 3,A
                           A  2103    ;  245		SET 4,A
                           A  2104    ;  246		SET 5,A
                           A  2105    ;  247		//RES 6,A
                           A  2106    ;  248		OUT0 (0A2H),A
                           A  2107    ;  249		IN0	A,(0A5H)//PD_ALT2
                           A  2108    ;  250		SET 3,A
                           A  2109    .LINE 250
                           A  2110    
0003F0 ED38A2              A  2111    	IN0 A,(0A2H) 
                           A  2112    ;  251		RES 4,A
                           A  2113    .LINE 251
                           A  2114    
0003F3 CB9F                A  2115    	RES 3,A 
                           A  2116    ;  252		RES 5,A
                           A  2117    .LINE 252
                           A  2118    
0003F5 CBE7                A  2119    	SET 4,A 
                           A  2120    ;  253		//SET 6,A
                           A  2121    .LINE 253
                           A  2122    
0003F7 CBEF                A  2123    	SET 5,A 
                           A  2124    ;  254		OUT0 (0A5H),A
                           A  2125    .LINE 254
                           A  2126    
                           A  2127    	
                           A  2128    ;  255		IN0	A,(0A4H)//PD_ALT1
                           A  2129    .LINE 255
                           A  2130    
0003F9 ED39A2              A  2131    	OUT0 (0A2H),A 
                           A  2132    ;  256		SET 3,A
                           A  2133    .LINE 256
                           A  2134    
0003FC ED38A5              A  2135    	IN0 A,(0A5H) 
                           A  2136    ;  257		SET 4,A
                           A  2137    .LINE 257
                           A  2138    
0003FF CBDF                A  2139    	SET 3,A 
                           A  2140    ;  258		RES 5,A
                           A  2141    .LINE 258
                           A  2142    
000401 CBA7                A  2143    	RES 4,A 
                           A  2144    ;  259		//SET 6,A
                           A  2145    .LINE 259
                           A  2146    
000403 CBAF                A  2147    	RES 5,A 
                           A  2148    ;  260		OUT0 (0A4H),A
                           A  2149    .LINE 260
                           A  2150    
                           A  2151    	
                           A  2152    ;  261		IN0	A,(0A3H)//PD_DDR
                           A  2153    .LINE 261
                           A  2154    
000405 ED39A5              A  2155    	OUT0 (0A5H),A 
                           A  2156    ;  262		RES 3,A
                           A  2157    .LINE 262
                           A  2158    
000408 ED38A4              A  2159    	IN0 A,(0A4H) 
                           A  2160    ;  263		RES 4,A
                           A  2161    .LINE 263
                           A  2162    
00040B CBDF                A  2163    	SET 3,A 
                           A  2164    ;  264		RES 5,A
                           A  2165    .LINE 264
                           A  2166    
00040D CBE7                A  2167    	SET 4,A 
                           A  2168    ;  265		//RES 6,A
                           A  2169    .LINE 265
                           A  2170    
00040F CBAF                A  2171    	RES 5,A 
                           A  2172    ;  266		OUT0 (0A3H),A
                           A  2173    .LINE 266
                           A  2174    
                           A  2175    	
                           A  2176    ;  267	#pragma endasm	
                           A  2177    .LINE 267
                           A  2178    
000411 ED39A4              A  2179    	OUT0 (0A4H),A 
                           A  2180    ;  268		RZKSuspendThread(ghRA88775,1);
                           A  2181    .LINE 268
                           A  2182    
000414 ED38A3              A  2183    	IN0 A,(0A3H) 
                           A  2184    ;  269		PD_DR 	&= 0xEF; 
                           A  2185    .LINE 269
                           A  2186    
000417 CB9F                A  2187    	RES 3,A 
                           A  2188    ;  270		RZKSuspendThread(ghRA88775,1);
                           A  2189    .LINE 270
                           A  2190    
000419 CBA7                A  2191    	RES 4,A 
                           A  2192    ;  271		PD_DR 	|= 0x10; 
                           A  2193    .LINE 271
                           A  2194    
00041B CBAF                A  2195    	RES 5,A 
                           A  2196    ;  272		RZKSuspendThread(ghRA88775,1);
                           A  2197    .LINE 272
                           A  2198    
                           A  2199    	
                           A  2200    ;  273		PD_DR 	&= 0xEF; 
                           A  2201    .LINE 273
                           A  2202    
00041D ED39A3              A  2203    	OUT0 (0A3H),A 
                           A  2204    ;  274		RZKSuspendThread(ghRA88775,1);
                           A  2205    ;  275		PD_DR 	|= 0x10; 
                           A  2206    .LINE 275
                           A  2207    
000420 01010000            A  2208    	LD	BC,1
000424 C5                  A  2209    	PUSH	BC
000425 ED4B 02 00 00       A  2210    	LD	BC,(_ghRA88775)
00042A C5                  A  2211    	PUSH	BC
00042B CD 00 00 00         A  2212    	CALL	_RZKSuspendThread
00042F C1                  A  2213    	POP	BC
000430 C1                  A  2214    	POP	BC
                           A  2215    ;  276		RZKSuspendThread(ghRA88775,1);
                           A  2216    .LINE 276
                           A  2217    
000431 ED38A2              A  2218    	IN0	A,(162)
000434 CBA7                A  2219    	RES	%4,A
000436 ED39A2              A  2220    	OUT0	(162),A
                           A  2221    ;  277	}
                           A  2222    .LINE 277
                           A  2223    
000439 01010000            A  2224    	LD	BC,1
00043D C5                  A  2225    	PUSH	BC
00043E ED4B 02 00 00       A  2226    	LD	BC,(_ghRA88775)
000443 C5                  A  2227    	PUSH	BC
000444 CD 00 00 00         A  2228    	CALL	_RZKSuspendThread
000448 C1                  A  2229    	POP	BC
000449 C1                  A  2230    	POP	BC
                           A  2231    ;  278	
                           A  2232    .LINE 278
                           A  2233    
00044A ED38A2              A  2234    	IN0	A,(162)
00044D CBE7                A  2235    	SET	%4,A
00044F ED39A2              A  2236    	OUT0	(162),A
                           A  2237    ;  279	/*typedef struct
                           A  2238    .LINE 279
                           A  2239    
000452 01010000            A  2240    	LD	BC,1
000456 C5                  A  2241    	PUSH	BC
000457 ED4B 02 00 00       A  2242    	LD	BC,(_ghRA88775)
00045C C5                  A  2243    	PUSH	BC
00045D CD 00 00 00         A  2244    	CALL	_RZKSuspendThread
000461 C1                  A  2245    	POP	BC
000462 C1                  A  2246    	POP	BC
                           A  2247    ;  280	{
                           A  2248    .LINE 280
                           A  2249    
000463 ED38A2              A  2250    	IN0	A,(162)
000466 CBA7                A  2251    	RES	%4,A
000468 ED39A2              A  2252    	OUT0	(162),A
                           A  2253    ;  281	   UINT8 type;
                           A  2254    .LINE 281
                           A  2255    
00046B 01010000            A  2256    	LD	BC,1
00046F C5                  A  2257    	PUSH	BC
000470 ED4B 02 00 00       A  2258    	LD	BC,(_ghRA88775)
000475 C5                  A  2259    	PUSH	BC
000476 CD 00 00 00         A  2260    	CALL	_RZKSuspendThread
00047A C1                  A  2261    	POP	BC
00047B C1                  A  2262    	POP	BC
                           A  2263    ;  282	   UINT8 id;
                           A  2264    .LINE 282
                           A  2265    
00047C ED38A2              A  2266    	IN0	A,(162)
00047F CBE7                A  2267    	SET	%4,A
000481 ED39A2              A  2268    	OUT0	(162),A
                           A  2269    ;  283	   UINT8 sub_id;
                           A  2270    .LINE 283
                           A  2271    
000484 01010000            A  2272    	LD	BC,1
000488 C5                  A  2273    	PUSH	BC
000489 ED4B 02 00 00       A  2274    	LD	BC,(_ghRA88775)
00048E C5                  A  2275    	PUSH	BC
00048F CD 00 00 00         A  2276    	CALL	_RZKSuspendThread
000493 C1                  A  2277    	POP	BC
000494 C1                  A  2278    	POP	BC
                           A  2279    ;  284	   UINT8 event;
                           A  2280    .LINE 284
                           A  2281    
000495 DDF9                A  2282    	LD	SP,IX
000497 DDE1                A  2283    	POP	IX
000499 C9                  A  2284    	RET	
                           A  2285    
                           A  2286    
                           A  2287    ;**************************** _HwIni **********
                           A  2288    ;Name                         Addr/Register   S
                           A  2289    ;_ghRA88775                          STATIC    
                           A  2290    ;_RZKSuspendThread                   IMPORT  --
                           A  2291    
                           A  2292    
                           A  2293    ; Stack Frame Size: 6 (bytes)
                           A  2294    ;       Spill Code: 0 (instruction)
                           A  2295    
                           A  2296    
                           A  2297    .ENDFUNC "HwIni",284,"_HwIni"
                           A  2298    ;  285	   void* src;
                           A  2299    ;  286	} UG_MESSAGE;*/
                           A  2300    ;  287	
                           A  2301    ;  288	/* Message types */
                           A  2302    ;  289	/*
                           A  2303    ;  290	#define MSG_TYPE_NONE                  
                           A  2304    ;  291	#define MSG_TYPE_WINDOW                
                           A  2305    ;  292	#define MSG_TYPE_OBJECT                
                           A  2306    ;  293	*/
                           A  2307    ;  294	/*
                           A  2308    ;  295	            msg.src = &obj;
                           A  2309    ;  296	            msg.id = obj->type;
                           A  2310    ;  297	            msg.sub_id = obj->id;
                           A  2311    ;  298	            msg.event = obj->event;
                           A  2312    ;  299	*/
                           A  2313    ;  300	void testButton(UG_MESSAGE* msg)
                           A  2314    ;  301	{
                           A  2315    ;  302		if(msg->type==MSG_TYPE_OBJECT)
                           A  2316    ;  303		{
                           A  2317    ;  304			if(msg->id==OBJ_TYPE_BUTTON)
                           A  2318    ;  305			{
                           A  2319    ;  306				switch(msg->sub_id)
                           A  2320    ;  307				{
                           A  2321    ;  308					case BTN_ID_0:
00049A                     A  2322    _testButton:
                           A  2323    .DEFINE "_testButton"
                           A  2324    
                           A  2325    .VALUE _testButton
                           A  2326    
                           A  2327    .CLASS 2
                           A  2328    
                           A  2329    .TYPE 65
                           A  2330    
                           A  2331    .ENDEF
                           A  2332    
                           A  2333    .BEGFUNC "testButton",308,"_testButton"
                           A  2334    
                           A  2335    .LINE 308
                           A  2336    
                           A  2337    .DEFINE "msg"
                           A  2338    
                           A  2339    .CLASS 65
                           A  2340    
                           A  2341    .VALUE 6
                           A  2342    
                           A  2343    .TAG "NONAME5"
                           A  2344    
                           A  2345    .TYPE 40
                           A  2346    
                           A  2347    .ENDEF
                           A  2348    
00049A DDE5                A  2349    	PUSH	IX
00049C DD210000 00         A  2350    	LD	IX,0
0004A1 DD39                A  2351    	ADD	IX,SP
                           A  2352    ;  309						
                           A  2353    .LINE 309
                           A  2354    
0004A3 DD3106              A  2355    	LD	IY,(IX+%6)
0004A6 FD7E00              A  2356    	LD	A,(IY+%0)
0004A9 FE02                A  2357    	CP	A,%2
0004AB 20 18               A  2358    	JR	NZ,L_11
                           A  2359    ;  310						break;
                           A  2360    ;  311				}
                           A  2361    .LINE 311
                           A  2362    
0004AD DD3106              A  2363    	LD	IY,(IX+%6)
0004B0 FD7E01              A  2364    	LD	A,(IY+%1)
0004B3 FE01                A  2365    	CP	A,%1
0004B5 20 0E               A  2366    	JR	NZ,L_11
                           A  2367    ;  312			}
                           A  2368    ;  313		}
                           A  2369    .LINE 313
                           A  2370    
0004B7 DD3106              A  2371    	LD	IY,(IX+%6)
0004BA FD7E02              A  2372    	LD	A,(IY+%2)
0004BD B7ED62              A  2373    	UEXT	HL
0004C0 6F                  A  2374    	LD	L,A
0004C1 CD 00 00 00         A  2375    	CALL	__icmpzero
                           A  2376    ;  314	}
                           A  2377    ;  315	
                           A  2378    ;  316	void RA8875Task(void)
                           A  2379    ;  317	{
                           A  2380    ;  318		char test_buf[256];
                           A  2381    ;  319		UINT16 i;
                           A  2382    ;  320		
                           A  2383    ;  321		for(i=0x20;i<0x80;i++) test_buf[i-0
0004C5                     A  2384    L_11:
                           A  2385    .LINE 321
                           A  2386    
0004C5 DDF9                A  2387    	LD	SP,IX
0004C7 DDE1                A  2388    	POP	IX
0004C9 C9                  A  2389    	RET	
                           A  2390    
                           A  2391    
                           A  2392    ;**************************** _testButton *****
                           A  2393    ;Name                         Addr/Register   S
                           A  2394    ;msg                                   IX+6    
                           A  2395    
                           A  2396    
                           A  2397    ; Stack Frame Size: 9 (bytes)
                           A  2398    ;       Spill Code: 0 (instruction)
                           A  2399    
                           A  2400    
                           A  2401    .ENDFUNC "testButton",321,"_testButton"
                           A  2402    ;  322		test_buf[i-0x20]=0;
                           A  2403    ;  323	
                           A  2404    ;  324		HwIni();
0004CA                     A  2405    _RA8875Task:
                           A  2406    .DEFINE "_RA8875Task"
                           A  2407    
                           A  2408    .VALUE _RA8875Task
                           A  2409    
                           A  2410    .CLASS 2
                           A  2411    
                           A  2412    .TYPE 65
                           A  2413    
                           A  2414    .ENDEF
                           A  2415    
                           A  2416    .BEGFUNC "RA8875Task",324,"_RA8875Task"
                           A  2417    
                           A  2418    .LINE 324
                           A  2419    
                           A  2420    .DEFINE "i"
                           A  2421    
                           A  2422    .CLASS 65
                           A  2423    
                           A  2424    .VALUE -2
                           A  2425    
                           A  2426    .TYPE 13
                           A  2427    
                           A  2428    .ENDEF
                           A  2429    
                           A  2430    .DEFINE "test_buf"
                           A  2431    
                           A  2432    .CLASS 65
                           A  2433    
                           A  2434    .VALUE -258
                           A  2435    
                           A  2436    .DIM 256
                           A  2437    
                           A  2438    .TYPE 98
                           A  2439    
0004CA DDE5                A  2440    	PUSH	IX
0004CC DD210000 00         A  2441    	LD	IX,0
0004D1 DD39                A  2442    	ADD	IX,SP
0004D3 21FEFEFF            A  2443    	LD	HL,-258
0004D7 39                  A  2444    	ADD	HL,SP
0004D8 F9                  A  2445    	LD	SP,HL
                           A  2446    .ENDEF
                           A  2447    
0004D9 18 0F               A  2448    	JR	L_13
                           A  2449    ;  325		SwIni();
                           A  2450    ;  326		UG_Init(&mygui,800,600);
                           A  2451    ;  327		fillScreen(RA8875_WHITE);
                           A  2452    ;  328	
0004DB                     A  2453    L_14:
                           A  2454    .LINE 328
                           A  2455    
0004DB 49018000            A  2456    	LD.LIS	BC,128
0004DF DD27FE              A  2457    	LD	HL,(IX+%FFFFFFFE)
0004E2 B7                  A  2458    	OR	A,A
0004E3 40ED42              A  2459    	SBC.SIS	HL,BC
0004E6 38 0C               A  2460    	JR	C,L_16
0004E8 18 35               A  2461    	JR	L_17
0004EA                     A  2462    L_13:
0004EA DD36FE20            A  2463    	LD	(IX+%FFFFFFFE),%20
0004EE DD36FF00            A  2464    	LD	(IX+%FFFFFFFF),%0
0004F2 18 E7               A  2465    	JR	L_14
0004F4                     A  2466    L_16:
0004F4 DD7EFE              A  2467    	LD	A,(IX+%FFFFFFFE)
0004F7 DD07FE              A  2468    	LD	BC,(IX+%FFFFFFFE)
0004FA CD 00 00 00         A  2469    	CALL	__stoiu
0004FE DDE5FDE1            A  2470    	LD	IY,IX
000502 01FEFEFF            A  2471    	LD	BC,-258
000506 FD09                A  2472    	ADD	IY,BC
000508 FDE5C1              A  2473    	LD	BC,IY
00050B 09                  A  2474    	ADD	HL,BC
00050C E5FDE1              A  2475    	LD	IY,HL
00050F ED23E0              A  2476    	LEA	HL,IY+%FFFFFFE0
000512 77                  A  2477    	LD	(HL),A
000513 DD27FE              A  2478    	LD	HL,(IX+%FFFFFFFE)
000516 23                  A  2479    	INC	HL
000517 DD75FE              A  2480    	LD	(IX+%FFFFFFFE),L
00051A DD74FF              A  2481    	LD	(IX+%FFFFFFFF),H
00051D 18 BC               A  2482    	JR	L_14
00051F                     A  2483    L_17:
                           A  2484    ;  329		graphicsMode();
                           A  2485    .LINE 329
                           A  2486    
00051F DD07FE              A  2487    	LD	BC,(IX+%FFFFFFFE)
000522 CD 00 00 00         A  2488    	CALL	__stoiu
000526 DDE5FDE1            A  2489    	LD	IY,IX
00052A 01FEFEFF            A  2490    	LD	BC,-258
00052E FD09                A  2491    	ADD	IY,BC
000530 FDE5C1              A  2492    	LD	BC,IY
000533 09                  A  2493    	ADD	HL,BC
000534 E5FDE1              A  2494    	LD	IY,HL
000537 ED23E0              A  2495    	LEA	HL,IY+%FFFFFFE0
00053A 3600                A  2496    	LD	(HL),%0
                           A  2497    ;  330	/*	UG_FontSelect(&FONT_12X20);
                           A  2498    ;  331		UG_ConsoleSetArea(0, 60, 700, 400);
                           A  2499    .LINE 331
                           A  2500    
00053C CD E7 03 00         A  2501    	CALL	_HwIni
                           A  2502    ;  332		UG_ConsoleSetBackcolor(C_BLACK);
                           A  2503    .LINE 332
                           A  2504    
000540 CD 08 01 00         A  2505    	CALL	_SwIni
                           A  2506    ;  333		UG_ConsoleSetForecolor(C_RED);
                           A  2507    .LINE 333
                           A  2508    
000544 01580200            A  2509    	LD	BC,600
000548 C5                  A  2510    	PUSH	BC
000549 01200300            A  2511    	LD	BC,800
00054D C5                  A  2512    	PUSH	BC
00054E 01 0F 00 00         A  2513    	LD	BC,_mygui
000552 C5                  A  2514    	PUSH	BC
000553 CD 00 00 00         A  2515    	CALL	_UG_Init
000557 C1                  A  2516    	POP	BC
000558 C1                  A  2517    	POP	BC
000559 C1                  A  2518    	POP	BC
                           A  2519    ;  334		UG_ConsolePutString("Test START>> Q
                           A  2520    .LINE 334
                           A  2521    
00055A 01FFFF00            A  2522    	LD	BC,65535
00055E C5                  A  2523    	PUSH	BC
00055F CD F7 0F 00         A  2524    	CALL	_fillScreen
000563 C1                  A  2525    	POP	BC
                           A  2526    ;  335		UG_ConsoleSetForecolor(C_GREEN);
                           A  2527    ;  336		UG_ConsolePutString("Test END<< ASD
                           A  2528    .LINE 336
                           A  2529    
000564 CD CC 08 00         A  2530    	CALL	_graphicsMode
                           A  2531    ;  337		RZKSuspendThread(ghRA88775,100);*/
                           A  2532    ;  338		fillScreen(RA8875_GREEN);
                           A  2533    ;  339	#ifndef TestIntFont	
                           A  2534    ;  340		//circleHelper(20, 20, 10, RA8875_R
                           A  2535    ;  341		//circleHelper(780, 40, 10, RA8875_
                           A  2536    ;  342		//circleHelper(400, 240, 10, RA8875
                           A  2537    ;  343		//circleHelper(40, 440, 10, RA8875_
                           A  2538    ;  344		//circleHelper(760, 460, 10, RA8875
                           A  2539    ;  345		while(1)
                           A  2540    .LINE 345
                           A  2541    
000568 01E00700            A  2542    	LD	BC,2016
00056C C5                  A  2543    	PUSH	BC
00056D CD F7 0F 00         A  2544    	CALL	_fillScreen
000571 C1                  A  2545    	POP	BC
                           A  2546    ;  346		{
                           A  2547    ;  347		UG_Update();
                           A  2548    ;  348		RZKSuspendThread(ghRA88775,100);
                           A  2549    ;  349		}
                           A  2550    ;  350	#endif
                           A  2551    ;  351	#ifdef TestIntFont		
                           A  2552    ;  352		while(1)
                           A  2553    ;  353		{
                           A  2554    ;  354			printf("Windows Create.\n");
                           A  2555    ;  355			UG_WindowCreate(&testWND, &test
                           A  2556    ;  356			UG_WindowResize( &testWND, 100,
                           A  2557    ;  357			UG_WindowSetTitleTextFont( &tes
                           A  2558    ;  358			UG_WindowSetTitleText( &testWND
                           A  2559    ;  359			UG_ButtonCreate( &testWND, &tes
000572                     A  2560    L_18:
                           A  2561    .LINE 359
                           A  2562    
                           A  2563    ;  360			UG_ButtonSetFont( &testWND, BTN
                           A  2564    ;  361			UG_ButtonSetText( &testWND, BTN
                           A  2565    .LINE 361
                           A  2566    
000572 01 9D 00 00         A  2567    	LD	BC,L__16
000576 C5                  A  2568    	PUSH	BC
000577 CD 00 00 00         A  2569    	CALL	_printf
00057B C1                  A  2570    	POP	BC
                           A  2571    ;  362			UG_ButtonShow( &testWND, BTN_ID
                           A  2572    .LINE 362
                           A  2573    
00057C 01 9A 04 00         A  2574    	LD	BC,_testButton
000580 C5                  A  2575    	PUSH	BC
000581 01100000            A  2576    	LD	BC,16
000585 C5                  A  2577    	PUSH	BC
000586 01 4B 00 00         A  2578    	LD	BC,_testOBJ
00058A C5                  A  2579    	PUSH	BC
00058B 01 2B 03 00         A  2580    	LD	BC,_testWND
00058F C5                  A  2581    	PUSH	BC
000590 CD 00 00 00         A  2582    	CALL	_UG_WindowCreate
000594 C1                  A  2583    	POP	BC
000595 C1                  A  2584    	POP	BC
000596 C1                  A  2585    	POP	BC
000597 C1                  A  2586    	POP	BC
                           A  2587    ;  363			UG_WindowShow( &testWND);
                           A  2588    .LINE 363
                           A  2589    
000598 01900100            A  2590    	LD	BC,400
00059C C5                  A  2591    	PUSH	BC
00059D 01580200            A  2592    	LD	BC,600
0005A1 C5                  A  2593    	PUSH	BC
0005A2 01640000            A  2594    	LD	BC,100
0005A6 C5                  A  2595    	PUSH	BC
0005A7 C5                  A  2596    	PUSH	BC
0005A8 01 2B 03 00         A  2597    	LD	BC,_testWND
0005AC C5                  A  2598    	PUSH	BC
0005AD CD 00 00 00         A  2599    	CALL	_UG_WindowResize
0005B1 C1                  A  2600    	POP	BC
0005B2 C1                  A  2601    	POP	BC
0005B3 C1                  A  2602    	POP	BC
0005B4 C1                  A  2603    	POP	BC
0005B5 C1                  A  2604    	POP	BC
                           A  2605    ;  364			UG_Update();
                           A  2606    .LINE 364
                           A  2607    
0005B6 01 00 00 00         A  2608    	LD	BC,_FONT_12X20
0005BA C5                  A  2609    	PUSH	BC
0005BB 01 2B 03 00         A  2610    	LD	BC,_testWND
0005BF C5                  A  2611    	PUSH	BC
0005C0 CD 00 00 00         A  2612    	CALL	_UG_WindowSetTitleTextFont
0005C4 C1                  A  2613    	POP	BC
0005C5 C1                  A  2614    	POP	BC
                           A  2615    ;  365			RZKSuspendThread(ghRA88775,200)
                           A  2616    .LINE 365
                           A  2617    
0005C6 01 AE 00 00         A  2618    	LD	BC,L__17
0005CA C5                  A  2619    	PUSH	BC
0005CB 01 2B 03 00         A  2620    	LD	BC,_testWND
0005CF C5                  A  2621    	PUSH	BC
0005D0 CD 00 00 00         A  2622    	CALL	_UG_WindowSetTitleText
0005D4 C1                  A  2623    	POP	BC
0005D5 C1                  A  2624    	POP	BC
                           A  2625    ;  366			printf("Windows Delete.\n");
                           A  2626    .LINE 366
                           A  2627    
0005D6 01460000            A  2628    	LD	BC,70
0005DA C5                  A  2629    	PUSH	BC
0005DB 01780000            A  2630    	LD	BC,120
0005DF C5                  A  2631    	PUSH	BC
0005E0 01140000            A  2632    	LD	BC,20
0005E4 C5                  A  2633    	PUSH	BC
0005E5 C5                  A  2634    	PUSH	BC
0005E6 01000000            A  2635    	LD	BC,0
0005EA C5                  A  2636    	PUSH	BC
0005EB 01 FB 01 00         A  2637    	LD	BC,_testBut
0005EF C5                  A  2638    	PUSH	BC
0005F0 01 2B 03 00         A  2639    	LD	BC,_testWND
0005F4 C5                  A  2640    	PUSH	BC
0005F5 CD 00 00 00         A  2641    	CALL	_UG_ButtonCreate
0005F9 C1                  A  2642    	POP	BC
0005FA C1                  A  2643    	POP	BC
0005FB C1                  A  2644    	POP	BC
0005FC C1                  A  2645    	POP	BC
0005FD C1                  A  2646    	POP	BC
0005FE C1                  A  2647    	POP	BC
0005FF C1                  A  2648    	POP	BC
                           A  2649    ;  367			UG_WindowDelete( &testWND);
                           A  2650    .LINE 367
                           A  2651    
000600 01 00 00 00         A  2652    	LD	BC,_FONT_22X36
000604 C5                  A  2653    	PUSH	BC
000605 01000000            A  2654    	LD	BC,0
000609 C5                  A  2655    	PUSH	BC
00060A 01 2B 03 00         A  2656    	LD	BC,_testWND
00060E C5                  A  2657    	PUSH	BC
00060F CD 00 00 00         A  2658    	CALL	_UG_ButtonSetFont
000613 C1                  A  2659    	POP	BC
000614 C1                  A  2660    	POP	BC
000615 C1                  A  2661    	POP	BC
                           A  2662    ;  368			UG_Update();
                           A  2663    .LINE 368
                           A  2664    
000616 01 BA 00 00         A  2665    	LD	BC,L__18
00061A C5                  A  2666    	PUSH	BC
00061B 01000000            A  2667    	LD	BC,0
00061F C5                  A  2668    	PUSH	BC
000620 01 2B 03 00         A  2669    	LD	BC,_testWND
000624 C5                  A  2670    	PUSH	BC
000625 CD 00 00 00         A  2671    	CALL	_UG_ButtonSetText
000629 C1                  A  2672    	POP	BC
00062A C1                  A  2673    	POP	BC
00062B C1                  A  2674    	POP	BC
                           A  2675    ;  369			RZKSuspendThread(ghRA88775,100)
                           A  2676    .LINE 369
                           A  2677    
00062C 01000000            A  2678    	LD	BC,0
000630 C5                  A  2679    	PUSH	BC
000631 01 2B 03 00         A  2680    	LD	BC,_testWND
000635 C5                  A  2681    	PUSH	BC
000636 CD 00 00 00         A  2682    	CALL	_UG_ButtonShow
00063A C1                  A  2683    	POP	BC
00063B C1                  A  2684    	POP	BC
                           A  2685    ;  370	//		fillScreen(RA8875_RED);
                           A  2686    .LINE 370
                           A  2687    
00063C 01 2B 03 00         A  2688    	LD	BC,_testWND
000640 C5                  A  2689    	PUSH	BC
000641 CD 00 00 00         A  2690    	CALL	_UG_WindowShow
000645 C1                  A  2691    	POP	BC
                           A  2692    ;  371			textMode();
                           A  2693    .LINE 371
                           A  2694    
000646 CD 00 00 00         A  2695    	CALL	_UG_Update
                           A  2696    ;  372	//		textEnlarge(0);
                           A  2697    .LINE 372
                           A  2698    
00064A 01C80000            A  2699    	LD	BC,200
00064E C5                  A  2700    	PUSH	BC
00064F ED4B 02 00 00       A  2701    	LD	BC,(_ghRA88775)
000654 C5                  A  2702    	PUSH	BC
000655 CD 00 00 00         A  2703    	CALL	_RZKSuspendThread
000659 C1                  A  2704    	POP	BC
00065A C1                  A  2705    	POP	BC
                           A  2706    ;  373			textColor(RA8875_BLACK,RA8875_W
                           A  2707    .LINE 373
                           A  2708    
00065B 01 BF 00 00         A  2709    	LD	BC,L__19
00065F C5                  A  2710    	PUSH	BC
000660 CD 00 00 00         A  2711    	CALL	_printf
000664 C1                  A  2712    	POP	BC
                           A  2713    ;  374	//		textTransparent(RA8875_GREEN);
                           A  2714    .LINE 374
                           A  2715    
000665 01 2B 03 00         A  2716    	LD	BC,_testWND
000669 C5                  A  2717    	PUSH	BC
00066A CD 00 00 00         A  2718    	CALL	_UG_WindowDelete
00066E C1                  A  2719    	POP	BC
                           A  2720    ;  375	
                           A  2721    .LINE 375
                           A  2722    
00066F CD 00 00 00         A  2723    	CALL	_UG_Update
                           A  2724    ;  376			textSetCursor(0,0);
                           A  2725    .LINE 376
                           A  2726    
000673 01640000            A  2727    	LD	BC,100
000677 C5                  A  2728    	PUSH	BC
000678 ED4B 02 00 00       A  2729    	LD	BC,(_ghRA88775)
00067D C5                  A  2730    	PUSH	BC
00067E CD 00 00 00         A  2731    	CALL	_RZKSuspendThread
000682 C1                  A  2732    	POP	BC
000683 C1                  A  2733    	POP	BC
                           A  2734    ;  377			switchArial16();
                           A  2735    ;  378			textWrite((const char*)test_buf
                           A  2736    .LINE 378
                           A  2737    
000684 CD FF 08 00         A  2738    	CALL	_textMode
                           A  2739    ;  379	
                           A  2740    ;  380			switchTimes16();
                           A  2741    .LINE 380
                           A  2742    
000688 01FFFF00            A  2743    	LD	BC,65535
00068C C5                  A  2744    	PUSH	BC
00068D 01000000            A  2745    	LD	BC,0
000691 C5                  A  2746    	PUSH	BC
000692 CD C4 0C 00         A  2747    	CALL	_textColor
000696 C1                  A  2748    	POP	BC
000697 C1                  A  2749    	POP	BC
                           A  2750    ;  381			textWrite((const char*)test_buf
                           A  2751    ;  382	
                           A  2752    ;  383			textSetCursor(0,100);
                           A  2753    .LINE 383
                           A  2754    
000698 01000000            A  2755    	LD	BC,0
00069C C5                  A  2756    	PUSH	BC
00069D C5                  A  2757    	PUSH	BC
00069E CD 4A 0C 00         A  2758    	CALL	_textSetCursor
0006A2 C1                  A  2759    	POP	BC
0006A3 C1                  A  2760    	POP	BC
                           A  2761    ;  384			switchArial24();
                           A  2762    .LINE 384
                           A  2763    
0006A4 CD D4 09 00         A  2764    	CALL	_switchArial16
                           A  2765    ;  385			textWrite((const char*)test_buf
                           A  2766    .LINE 385
                           A  2767    
0006A8 DDE5E1              A  2768    	LD	HL,IX
0006AB 01FEFEFF            A  2769    	LD	BC,-258
0006AF 09                  A  2770    	ADD	HL,BC
0006B0 E5C1                A  2771    	LD	BC,HL
0006B2 C5                  A  2772    	PUSH	BC
0006B3 CD DA 0E 00         A  2773    	CALL	_textWrite
0006B7 C1                  A  2774    	POP	BC
                           A  2775    ;  386	
                           A  2776    ;  387			switchTimes24();
                           A  2777    .LINE 387
                           A  2778    
0006B8 CD 56 09 00         A  2779    	CALL	_switchTimes16
                           A  2780    ;  388			textWrite((const char*)test_buf
                           A  2781    .LINE 388
                           A  2782    
0006BC DDE5E1              A  2783    	LD	HL,IX
0006BF 01FEFEFF            A  2784    	LD	BC,-258
0006C3 09                  A  2785    	ADD	HL,BC
0006C4 E5C1                A  2786    	LD	BC,HL
0006C6 C5                  A  2787    	PUSH	BC
0006C7 CD DA 0E 00         A  2788    	CALL	_textWrite
0006CB C1                  A  2789    	POP	BC
                           A  2790    ;  389	
                           A  2791    ;  390			textSetCursor(0,250);
                           A  2792    .LINE 390
                           A  2793    
0006CC 01640000            A  2794    	LD	BC,100
0006D0 C5                  A  2795    	PUSH	BC
0006D1 01000000            A  2796    	LD	BC,0
0006D5 C5                  A  2797    	PUSH	BC
0006D6 CD 4A 0C 00         A  2798    	CALL	_textSetCursor
0006DA C1                  A  2799    	POP	BC
0006DB C1                  A  2800    	POP	BC
                           A  2801    ;  391			switchArial32();
                           A  2802    .LINE 391
                           A  2803    
0006DC CD D0 0A 00         A  2804    	CALL	_switchArial24
                           A  2805    ;  392			textWrite((const char*)test_buf
                           A  2806    .LINE 392
                           A  2807    
0006E0 DDE5E1              A  2808    	LD	HL,IX
0006E3 01FEFEFF            A  2809    	LD	BC,-258
0006E7 09                  A  2810    	ADD	HL,BC
0006E8 E5C1                A  2811    	LD	BC,HL
0006EA C5                  A  2812    	PUSH	BC
0006EB CD DA 0E 00         A  2813    	CALL	_textWrite
0006EF C1                  A  2814    	POP	BC
                           A  2815    ;  393	
                           A  2816    ;  394			switchTimes32();
                           A  2817    .LINE 394
                           A  2818    
0006F0 CD 52 0A 00         A  2819    	CALL	_switchTimes24
                           A  2820    ;  395			textWrite((const char*)test_buf
                           A  2821    .LINE 395
                           A  2822    
0006F4 DDE5E1              A  2823    	LD	HL,IX
0006F7 01FEFEFF            A  2824    	LD	BC,-258
0006FB 09                  A  2825    	ADD	HL,BC
0006FC E5C1                A  2826    	LD	BC,HL
0006FE C5                  A  2827    	PUSH	BC
0006FF CD DA 0E 00         A  2828    	CALL	_textWrite
000703 C1                  A  2829    	POP	BC
                           A  2830    ;  396			
                           A  2831    ;  397			graphicsMode();
                           A  2832    .LINE 397
                           A  2833    
000704 01FA0000            A  2834    	LD	BC,250
000708 C5                  A  2835    	PUSH	BC
000709 01000000            A  2836    	LD	BC,0
00070D C5                  A  2837    	PUSH	BC
00070E CD 4A 0C 00         A  2838    	CALL	_textSetCursor
000712 C1                  A  2839    	POP	BC
000713 C1                  A  2840    	POP	BC
                           A  2841    ;  398			RZKSuspendThread(ghRA88775,100)
                           A  2842    .LINE 398
                           A  2843    
000714 CD CC 0B 00         A  2844    	CALL	_switchArial32
                           A  2845    ;  399			fillScreen(RA8875_WHITE);
                           A  2846    .LINE 399
                           A  2847    
000718 DDE5E1              A  2848    	LD	HL,IX
00071B 01FEFEFF            A  2849    	LD	BC,-258
00071F 09                  A  2850    	ADD	HL,BC
000720 E5C1                A  2851    	LD	BC,HL
000722 C5                  A  2852    	PUSH	BC
000723 CD DA 0E 00         A  2853    	CALL	_textWrite
000727 C1                  A  2854    	POP	BC
                           A  2855    ;  400			UG_SetBackcolor(C_WHITE);
                           A  2856    ;  401			UG_SetForecolor(C_BLACK);
                           A  2857    .LINE 401
                           A  2858    
000728 CD 4E 0B 00         A  2859    	CALL	_switchTimes32
                           A  2860    ;  402	
                           A  2861    .LINE 402
                           A  2862    
00072C DDE5E1              A  2863    	LD	HL,IX
00072F 01FEFEFF            A  2864    	LD	BC,-258
000733 09                  A  2865    	ADD	HL,BC
000734 E5C1                A  2866    	LD	BC,HL
000736 C5                  A  2867    	PUSH	BC
000737 CD DA 0E 00         A  2868    	CALL	_textWrite
00073B C1                  A  2869    	POP	BC
                           A  2870    ;  403			UG_FontSelect(&FONT_12X20);
                           A  2871    ;  404			UG_PutString( 0, 0, (char*)test
                           A  2872    .LINE 404
                           A  2873    
00073C CD CC 08 00         A  2874    	CALL	_graphicsMode
                           A  2875    ;  405			UG_PutString( 0, 60, (char*)tes
                           A  2876    .LINE 405
                           A  2877    
000740 01640000            A  2878    	LD	BC,100
000744 C5                  A  2879    	PUSH	BC
000745 ED4B 02 00 00       A  2880    	LD	BC,(_ghRA88775)
00074A C5                  A  2881    	PUSH	BC
00074B CD 00 00 00         A  2882    	CALL	_RZKSuspendThread
00074F C1                  A  2883    	POP	BC
000750 C1                  A  2884    	POP	BC
                           A  2885    ;  406			UG_FontSelect(&FONT_16X26);
                           A  2886    .LINE 406
                           A  2887    
000751 01FFFF00            A  2888    	LD	BC,65535
000755 C5                  A  2889    	PUSH	BC
000756 CD F7 0F 00         A  2890    	CALL	_fillScreen
00075A C1                  A  2891    	POP	BC
                           A  2892    ;  407			UG_PutString( 0, 120, (char*)te
                           A  2893    .LINE 407
                           A  2894    
00075B 01FFFF00            A  2895    	LD	BC,65535
00075F C5                  A  2896    	PUSH	BC
000760 CD 00 00 00         A  2897    	CALL	_UG_SetBackcolor
000764 C1                  A  2898    	POP	BC
                           A  2899    ;  408			UG_PutString( 0, 180, (char*)te
                           A  2900    .LINE 408
                           A  2901    
000765 01000000            A  2902    	LD	BC,0
000769 C5                  A  2903    	PUSH	BC
00076A CD 00 00 00         A  2904    	CALL	_UG_SetForecolor
00076E C1                  A  2905    	POP	BC
                           A  2906    ;  409			UG_FontSelect(&FONT_24X40);
                           A  2907    ;  410			UG_PutString( 0, 240, (char*)te
                           A  2908    .LINE 410
                           A  2909    
00076F 01 00 00 00         A  2910    	LD	BC,_FONT_12X20
000773 C5                  A  2911    	PUSH	BC
000774 CD 00 00 00         A  2912    	CALL	_UG_FontSelect
000778 C1                  A  2913    	POP	BC
                           A  2914    ;  411			UG_PutString( 0, 360, (char*)te
                           A  2915    .LINE 411
                           A  2916    
000779 DDE5E1              A  2917    	LD	HL,IX
00077C 01FEFEFF            A  2918    	LD	BC,-258
000780 09                  A  2919    	ADD	HL,BC
000781 E5C1                A  2920    	LD	BC,HL
000783 C5                  A  2921    	PUSH	BC
000784 01000000            A  2922    	LD	BC,0
000788 C5                  A  2923    	PUSH	BC
000789 C5                  A  2924    	PUSH	BC
00078A CD 00 00 00         A  2925    	CALL	_UG_PutString
00078E C1                  A  2926    	POP	BC
00078F C1                  A  2927    	POP	BC
000790 C1                  A  2928    	POP	BC
                           A  2929    ;  412	
                           A  2930    .LINE 412
                           A  2931    
000791 DDE5E1              A  2932    	LD	HL,IX
000794 01FEFEFF            A  2933    	LD	BC,-258
000798 09                  A  2934    	ADD	HL,BC
000799 E5C1                A  2935    	LD	BC,HL
00079B C5                  A  2936    	PUSH	BC
00079C 013C0000            A  2937    	LD	BC,60
0007A0 C5                  A  2938    	PUSH	BC
0007A1 01000000            A  2939    	LD	BC,0
0007A5 C5                  A  2940    	PUSH	BC
0007A6 CD 00 00 00         A  2941    	CALL	_UG_PutString
0007AA C1                  A  2942    	POP	BC
0007AB C1                  A  2943    	POP	BC
0007AC C1                  A  2944    	POP	BC
                           A  2945    ;  413			//DrawLine(300,300,400,400,RA88
                           A  2946    .LINE 413
                           A  2947    
0007AD 01 00 00 00         A  2948    	LD	BC,_FONT_16X26
0007B1 C5                  A  2949    	PUSH	BC
0007B2 CD 00 00 00         A  2950    	CALL	_UG_FontSelect
0007B6 C1                  A  2951    	POP	BC
                           A  2952    ;  414			//rectHelper(600,100,100,100,RA
                           A  2953    .LINE 414
                           A  2954    
0007B7 DDE5E1              A  2955    	LD	HL,IX
0007BA 01FEFEFF            A  2956    	LD	BC,-258
0007BE 09                  A  2957    	ADD	HL,BC
0007BF E5C1                A  2958    	LD	BC,HL
0007C1 C5                  A  2959    	PUSH	BC
0007C2 01780000            A  2960    	LD	BC,120
0007C6 C5                  A  2961    	PUSH	BC
0007C7 01000000            A  2962    	LD	BC,0
0007CB C5                  A  2963    	PUSH	BC
0007CC CD 00 00 00         A  2964    	CALL	_UG_PutString
0007D0 C1                  A  2965    	POP	BC
0007D1 C1                  A  2966    	POP	BC
0007D2 C1                  A  2967    	POP	BC
                           A  2968    ;  415			//rectHelper(550,150,100,100,RA
                           A  2969    .LINE 415
                           A  2970    
0007D3 DDE5E1              A  2971    	LD	HL,IX
0007D6 01FEFEFF            A  2972    	LD	BC,-258
0007DA 09                  A  2973    	ADD	HL,BC
0007DB E5C1                A  2974    	LD	BC,HL
0007DD C5                  A  2975    	PUSH	BC
0007DE 01B40000            A  2976    	LD	BC,180
0007E2 C5                  A  2977    	PUSH	BC
0007E3 01000000            A  2978    	LD	BC,0
0007E7 C5                  A  2979    	PUSH	BC
0007E8 CD 00 00 00         A  2980    	CALL	_UG_PutString
0007EC C1                  A  2981    	POP	BC
0007ED C1                  A  2982    	POP	BC
0007EE C1                  A  2983    	POP	BC
                           A  2984    ;  416			//rectHelper(450,200,100,100,RA
                           A  2985    .LINE 416
                           A  2986    
0007EF 01 00 00 00         A  2987    	LD	BC,_FONT_24X40
0007F3 C5                  A  2988    	PUSH	BC
0007F4 CD 00 00 00         A  2989    	CALL	_UG_FontSelect
0007F8 C1                  A  2990    	POP	BC
                           A  2991    ;  417			//fillRect();
                           A  2992    .LINE 417
                           A  2993    
0007F9 DDE5E1              A  2994    	LD	HL,IX
0007FC 01FEFEFF            A  2995    	LD	BC,-258
000800 09                  A  2996    	ADD	HL,BC
000801 E5C1                A  2997    	LD	BC,HL
000803 C5                  A  2998    	PUSH	BC
000804 01F00000            A  2999    	LD	BC,240
000808 C5                  A  3000    	PUSH	BC
000809 01000000            A  3001    	LD	BC,0
00080D C5                  A  3002    	PUSH	BC
00080E CD 00 00 00         A  3003    	CALL	_UG_PutString
000812 C1                  A  3004    	POP	BC
000813 C1                  A  3005    	POP	BC
000814 C1                  A  3006    	POP	BC
                           A  3007    ;  418			//rectCornerHelper(0,0,200,200,
                           A  3008    .LINE 418
                           A  3009    
000815 DDE5E1              A  3010    	LD	HL,IX
000818 01FEFEFF            A  3011    	LD	BC,-258
00081C 09                  A  3012    	ADD	HL,BC
00081D E5C1                A  3013    	LD	BC,HL
00081F C5                  A  3014    	PUSH	BC
000820 01680100            A  3015    	LD	BC,360
000824 C5                  A  3016    	PUSH	BC
000825 01000000            A  3017    	LD	BC,0
000829 C5                  A  3018    	PUSH	BC
00082A CD 00 00 00         A  3019    	CALL	_UG_PutString
00082E C1                  A  3020    	POP	BC
00082F C1                  A  3021    	POP	BC
000830 C1                  A  3022    	POP	BC
                           A  3023    ;  419			//circleHelper(400, 240, 100, R
                           A  3024    ;  420			//circleHelper(350, 190, 100, R
                           A  3025    ;  421			//triangleHelper(50, 50, 100, 1
                           A  3026    ;  422			//triangleHelper(100, 100, 150,
                           A  3027    ;  423			//ellipseHelper(300, 300, 50, 2
                           A  3028    ;  424			//ellipseHelper(200, 100, 50, 2
                           A  3029    ;  425			//curveHelper(500, 300, 50, 25,
                           A  3030    ;  426			//curveHelper(550, 350, 50, 25,
                           A  3031    ;  427	//		RZKSuspendThread(ghRA88775,100)
                           A  3032    ;  428	//		for(i=0;i<480;i++)
                           A  3033    ;  429	//		{
                           A  3034    ;  430	//		setXY(0,i);
                           A  3035    ;  431	//		pushPixels(800,RA8875_GREEN);
                           A  3036    ;  432	//		}
                           A  3037    ;  433			RZKSuspendThread(ghRA88775,200)
                           A  3038    ;  434			fillScreen(RA8875_WHITE);
                           A  3039    ;  435		}
                           A  3040    ;  436	#endif		
                           A  3041    ;  437		//}
                           A  3042    ;  438	}
                           A  3043    ;  439	
                           A  3044    ;  440	/****************************RA8875intI
                           A  3045    .LINE 440
                           A  3046    
000831 01C80000            A  3047    	LD	BC,200
000835 C5                  A  3048    	PUSH	BC
000836 ED4B 02 00 00       A  3049    	LD	BC,(_ghRA88775)
00083B C5                  A  3050    	PUSH	BC
00083C CD 00 00 00         A  3051    	CALL	_RZKSuspendThread
000840 C1                  A  3052    	POP	BC
000841 C1                  A  3053    	POP	BC
                           A  3054    ;  441	void RA8875intIsrTask(void)
                           A  3055    .LINE 441
                           A  3056    
000842 01FFFF00            A  3057    	LD	BC,65535
000846 C5                  A  3058    	PUSH	BC
000847 CD F7 0F 00         A  3059    	CALL	_fillScreen
00084B C1                  A  3060    	POP	BC
                           A  3061    ;  442	{
                           A  3062    .LINE 442
                           A  3063    
00084C C3 72 05 00         A  3064    	JR	L_18
                           A  3065    ;  443		while(1)
                           A  3066    ;  444		{
                           A  3067    ;  445			RZKPostToEventGroup(ehRA8875int
                           A  3068    .LINE 445
                           A  3069    
000850 DDF9                A  3070    	LD	SP,IX
000852 DDE1                A  3071    	POP	IX
000854 C9                  A  3072    	RET	
                           A  3073    
                           A  3074    
                           A  3075    ;**************************** _RA8875Task *****
                           A  3076    ;Name                         Addr/Register   S
                           A  3077    ;_FONT_24X40                         IMPORT    
                           A  3078    ;_FONT_16X26                         IMPORT    
                           A  3079    ;_UG_PutString                       IMPORT  --
                           A  3080    ;_UG_FontSelect                      IMPORT  --
                           A  3081    ;_UG_SetForecolor                    IMPORT  --
                           A  3082    ;_UG_SetBackcolor                    IMPORT  --
                           A  3083    ;_switchTimes32                      IMPORT  --
                           A  3084    ;_switchArial32                      IMPORT  --
                           A  3085    ;_switchTimes24                      IMPORT  --
                           A  3086    ;_switchArial24                      IMPORT  --
                           A  3087    ;_switchTimes16                      IMPORT  --
                           A  3088    ;_textWrite                          IMPORT  --
                           A  3089    ;_switchArial16                      IMPORT  --
                           A  3090    ;_textSetCursor                      IMPORT  --
                           A  3091    ;_textColor                          IMPORT  --
                           A  3092    ;_textMode                           IMPORT  --
                           A  3093    ;_UG_WindowDelete                    IMPORT  --
                           A  3094    ;_ghRA88775                          STATIC    
                           A  3095    ;_RZKSuspendThread                   IMPORT  --
                           A  3096    ;_UG_Update                          IMPORT  --
                           A  3097    ;_UG_WindowShow                      IMPORT  --
                           A  3098    ;_UG_ButtonShow                      IMPORT  --
                           A  3099    ;_UG_ButtonSetText                   IMPORT  --
                           A  3100    ;_FONT_22X36                         IMPORT    
                           A  3101    ;_UG_ButtonSetFont                   IMPORT  --
                           A  3102    ;_testBut                            STATIC    
                           A  3103    ;_UG_ButtonCreate                    IMPORT  --
                           A  3104    ;_UG_WindowSetTitleText              IMPORT  --
                           A  3105    ;_FONT_12X20                         IMPORT    
                           A  3106    ;_UG_WindowSetTitleTextFont          IMPORT  --
                           A  3107    ;_UG_WindowResize                    IMPORT  --
                           A  3108    ;_testWND                            STATIC    
                           A  3109    ;_testOBJ                            STATIC    
                           A  3110    ;_testButton                         IMPORT  --
                           A  3111    ;_UG_WindowCreate                    IMPORT  --
                           A  3112    ;_printf                             IMPORT  --
                           A  3113    ;_graphicsMode                       IMPORT  --
                           A  3114    ;_fillScreen                         IMPORT  --
                           A  3115    ;_mygui                              STATIC    
                           A  3116    ;_UG_Init                            IMPORT  --
                           A  3117    ;_SwIni                              IMPORT  --
                           A  3118    ;_HwIni                              IMPORT  --
                           A  3119    ;test_buf                            IX-258    
                           A  3120    ;i                                     IX-2    
                           A  3121    
                           A  3122    
                           A  3123    ; Stack Frame Size: 264 (bytes)
                           A  3124    ;       Spill Code: 0 (instruction)
                           A  3125    
                           A  3126    
                           A  3127    .ENDFUNC "RA8875Task",445,"_RA8875Task"
                           A  3128    	SEGMENT STRSECT
00009D                     A  3129    L__16:
00009D 57696E64 6F777320   A  3130    	DB	"Windows Create."
0000A5 43726561 74652E 
0000AC 0A00                A  3131    	DB	10,0
0000AE                     A  3132    L__17:
0000AE 54657374 2057696E   A  3133    	DB	"Test Window"
0000B6 646F77 
0000B9 00                  A  3134    	DB	0
0000BA                     A  3135    L__18:
0000BA 54657374            A  3136    	DB	"Test"
0000BE 00                  A  3137    	DB	0
0000BF                     A  3138    L__19:
0000BF 57696E64 6F777320   A  3139    	DB	"Windows Delete."
0000C7 44656C65 74652E 
0000CE 0A00                A  3140    	DB	10,0
                           A  3141    	SEGMENT CODE
                           A  3142    ;  446			RZKSuspendInterruptThread();
                           A  3143    ;  447		}
                           A  3144    ;  448	}
                           A  3145    ;  449	/*****************************RA8875wai
000855                     A  3146    _RA8875intIsrTask:
                           A  3147    .DEFINE "_RA8875intIsrTask"
                           A  3148    
                           A  3149    .VALUE _RA8875intIsrTask
                           A  3150    
                           A  3151    .CLASS 2
                           A  3152    
                           A  3153    .TYPE 65
                           A  3154    
                           A  3155    .ENDEF
                           A  3156    
000855 DDE5                A  3157    	PUSH	IX
000857 DD210000 00         A  3158    	LD	IX,0
00085C DD39                A  3159    	ADD	IX,SP
                           A  3160    .BEGFUNC "RA8875intIsrTask",449,"_RA8875intIsrT
                           A  3161    
                           A  3162    ;  450	/*void RA8875waitIsrTask(void)
00085E                     A  3163    L_21:
                           A  3164    .LINE 450
                           A  3165    
                           A  3166    ;  451	{
                           A  3167    ;  452		UINTRMASK mInterruptMask;
                           A  3168    .LINE 452
                           A  3169    
00085E 01010000            A  3170    	LD	BC,1
000862 C5                  A  3171    	PUSH	BC
000863 C5                  A  3172    	PUSH	BC
000864 ED4B 08 00 00       A  3173    	LD	BC,(_ehRA8875int)
000869 C5                  A  3174    	PUSH	BC
00086A CD 00 00 00         A  3175    	CALL	_RZKPostToEventGroup
00086E C1                  A  3176    	POP	BC
00086F C1                  A  3177    	POP	BC
000870 C1                  A  3178    	POP	BC
                           A  3179    ;  453		while(1)
                           A  3180    .LINE 453
                           A  3181    
000871 CD 00 00 00         A  3182    	CALL	_RZKSuspendInterruptThread
                           A  3183    ;  454		{
                           A  3184    .LINE 454
                           A  3185    
000875 18 E7               A  3186    	JR	L_21
                           A  3187    ;  455			RZKSuspendInterruptThread();
                           A  3188    .LINE 455
                           A  3189    
000877 DDF9                A  3190    	LD	SP,IX
000879 DDE1                A  3191    	POP	IX
00087B C9                  A  3192    	RET	
                           A  3193    
                           A  3194    
                           A  3195    ;**************************** _RA8875intIsrTask
                           A  3196    ;Name                         Addr/Register   S
                           A  3197    ;_RZKSuspendInterruptThread          IMPORT  --
                           A  3198    ;_ehRA8875int                        STATIC    
                           A  3199    ;_RZKPostToEventGroup                IMPORT  --
                           A  3200    
                           A  3201    
                           A  3202    ; Stack Frame Size: 6 (bytes)
                           A  3203    ;       Spill Code: 0 (instruction)
                           A  3204    
                           A  3205    
                           A  3206    .ENDFUNC "RA8875intIsrTask",455,"_RA8875intIsrT
                           A  3207    ;  456		}
                           A  3208    ;  457	}*/
                           A  3209    ;  458	/**************************************
                           A  3210    ;  459	/*!
                           A  3211    ;  460	      Initialise the PLL
                           A  3212    ;  461	*/
                           A  3213    ;  462	/**************************************
                           A  3214    ;  463	void PLLinit(void) {
                           A  3215    ;  464	//  if (_size == RA8875_480x272) {
                           A  3216    ;  465	//    writeReg(RA8875_PLLC1, RA8875_PLL
                           A  3217    ;  466	//    RZKSuspendThread(ghRA88775,1);
                           A  3218    ;  467	//    writeReg(RA8875_PLLC2, RA8875_PLL
                           A  3219    ;  468	//    RZKSuspendThread(ghRA88775,1);
                           A  3220    ;  469	//  }
                           A  3221    ;  470	//  else /* (_size == RA8875_800x480) *
00087C                     A  3222    _PLLinit:
                           A  3223    .DEFINE "_PLLinit"
                           A  3224    
                           A  3225    .VALUE _PLLinit
                           A  3226    
                           A  3227    .CLASS 2
                           A  3228    
                           A  3229    .TYPE 65
                           A  3230    
                           A  3231    .ENDEF
                           A  3232    
                           A  3233    .BEGFUNC "PLLinit",470,"_PLLinit"
                           A  3234    
00087C DDE5                A  3235    	PUSH	IX
00087E DD210000 00         A  3236    	LD	IX,0
000883 DD39                A  3237    	ADD	IX,SP
                           A  3238    ;  471	    writeReg(RA8875_PLLC1, RA8875_PLLC1
                           A  3239    ;  472	    RZKSuspendThread(ghRA88775,1);
                           A  3240    ;  473	    writeReg(RA8875_PLLC2, RA8875_PLLC2
                           A  3241    ;  474	    RZKSuspendThread(ghRA88775,1);
                           A  3242    ;  475	//  }
                           A  3243    ;  476	}
                           A  3244    ;  477	/**************************************
                           A  3245    ;  478	/*!
                           A  3246    .LINE 478
                           A  3247    
000885 010B0000            A  3248    	LD	BC,11
000889 C5                  A  3249    	PUSH	BC
00088A 01880000            A  3250    	LD	BC,136
00088E C5                  A  3251    	PUSH	BC
00088F CD 4E 1F 00         A  3252    	CALL	_writeReg
000893 C1                  A  3253    	POP	BC
000894 C1                  A  3254    	POP	BC
                           A  3255    ;  479	      Sets the display in graphics mode
                           A  3256    .LINE 479
                           A  3257    
000895 01010000            A  3258    	LD	BC,1
000899 C5                  A  3259    	PUSH	BC
00089A ED4B 02 00 00       A  3260    	LD	BC,(_ghRA88775)
00089F C5                  A  3261    	PUSH	BC
0008A0 CD 00 00 00         A  3262    	CALL	_RZKSuspendThread
0008A4 C1                  A  3263    	POP	BC
0008A5 C1                  A  3264    	POP	BC
                           A  3265    ;  480	*/
                           A  3266    .LINE 480
                           A  3267    
0008A6 01020000            A  3268    	LD	BC,2
0008AA C5                  A  3269    	PUSH	BC
0008AB 01890000            A  3270    	LD	BC,137
0008AF C5                  A  3271    	PUSH	BC
0008B0 CD 4E 1F 00         A  3272    	CALL	_writeReg
0008B4 C1                  A  3273    	POP	BC
0008B5 C1                  A  3274    	POP	BC
                           A  3275    ;  481	/**************************************
                           A  3276    .LINE 481
                           A  3277    
0008B6 01010000            A  3278    	LD	BC,1
0008BA C5                  A  3279    	PUSH	BC
0008BB ED4B 02 00 00       A  3280    	LD	BC,(_ghRA88775)
0008C0 C5                  A  3281    	PUSH	BC
0008C1 CD 00 00 00         A  3282    	CALL	_RZKSuspendThread
0008C5 C1                  A  3283    	POP	BC
0008C6 C1                  A  3284    	POP	BC
                           A  3285    ;  482	void graphicsMode(void) {
                           A  3286    ;  483	//	writeReg(RA8875_MWCR0,0);
                           A  3287    .LINE 483
                           A  3288    
0008C7 DDF9                A  3289    	LD	SP,IX
0008C9 DDE1                A  3290    	POP	IX
0008CB C9                  A  3291    	RET	
                           A  3292    
                           A  3293    
                           A  3294    ;**************************** _PLLinit ********
                           A  3295    ;Name                         Addr/Register   S
                           A  3296    ;_ghRA88775                          STATIC    
                           A  3297    ;_RZKSuspendThread                   IMPORT  --
                           A  3298    ;_writeReg                           IMPORT  --
                           A  3299    
                           A  3300    
                           A  3301    ; Stack Frame Size: 6 (bytes)
                           A  3302    ;       Spill Code: 0 (instruction)
                           A  3303    
                           A  3304    
                           A  3305    .ENDFUNC "PLLinit",483,"_PLLinit"
                           A  3306    ;  484	//	writeReg(RA8875_MWCR0+1,0);
                           A  3307    ;  485	//	writeReg(RA8875_MWCR0+5,0);
                           A  3308    ;  486		UINT8 temp;
                           A  3309    ;  487	  writeCommand(RA8875_MWCR0);
                           A  3310    ;  488	  temp = RA8875_DATA_REG;
                           A  3311    ;  489	  temp &= ~RA8875_MWCR0_TXTMODE; // bit
0008CC                     A  3312    _graphicsMode:
                           A  3313    .DEFINE "_graphicsMode"
                           A  3314    
                           A  3315    .VALUE _graphicsMode
                           A  3316    
                           A  3317    .CLASS 2
                           A  3318    
                           A  3319    .TYPE 65
                           A  3320    
                           A  3321    .ENDEF
                           A  3322    
                           A  3323    .BEGFUNC "graphicsMode",489,"_graphicsMode"
                           A  3324    
                           A  3325    .LINE 489
                           A  3326    
                           A  3327    .DEFINE "temp"
                           A  3328    
                           A  3329    .CLASS 65
                           A  3330    
                           A  3331    .VALUE -1
                           A  3332    
                           A  3333    .TYPE 12
                           A  3334    
                           A  3335    .ENDEF
                           A  3336    
0008CC DDE5                A  3337    	PUSH	IX
0008CE DD210000 00         A  3338    	LD	IX,0
0008D3 DD39                A  3339    	ADD	IX,SP
0008D5 3B                  A  3340    	DEC	SP
                           A  3341    ;  490	  writeData(temp);
                           A  3342    ;  491	}
                           A  3343    ;  492	/**************************************
                           A  3344    ;  493	/*!
                           A  3345    ;  494	      Sets the display in text mode (as
                           A  3346    .LINE 494
                           A  3347    
0008D6 01400000            A  3348    	LD	BC,64
0008DA C5                  A  3349    	PUSH	BC
0008DB CD 76 1E 00         A  3350    	CALL	_writeCommand
0008DF C1                  A  3351    	POP	BC
                           A  3352    ;  495	*/
                           A  3353    .LINE 495
                           A  3354    
0008E0 3A0000D0            A  3355    	LD	A,(13631488)
0008E4 DD77FF              A  3356    	LD	(IX+%FFFFFFFF),A
                           A  3357    ;  496	/**************************************
                           A  3358    .LINE 496
                           A  3359    
0008E7 DD7EFF              A  3360    	LD	A,(IX+%FFFFFFFF)
0008EA CBBF                A  3361    	RES	%7,A
0008EC DD77FF              A  3362    	LD	(IX+%FFFFFFFF),A
                           A  3363    ;  497	void textMode(void) 
                           A  3364    .LINE 497
                           A  3365    
0008EF DD4EFF              A  3366    	LD	C,(IX+%FFFFFFFF)
0008F2 0600                A  3367    	LD	B,%0
0008F4 C5                  A  3368    	PUSH	BC
0008F5 CD 8B 1E 00         A  3369    	CALL	_writeData
0008F9 C1                  A  3370    	POP	BC
                           A  3371    ;  498	{
                           A  3372    .LINE 498
                           A  3373    
0008FA DDF9                A  3374    	LD	SP,IX
0008FC DDE1                A  3375    	POP	IX
0008FE C9                  A  3376    	RET	
                           A  3377    
                           A  3378    
                           A  3379    ;**************************** _graphicsMode ***
                           A  3380    ;Name                         Addr/Register   S
                           A  3381    ;_writeData                          IMPORT  --
                           A  3382    ;_writeCommand                       IMPORT  --
                           A  3383    ;temp                                  IX-1    
                           A  3384    
                           A  3385    
                           A  3386    ; Stack Frame Size: 7 (bytes)
                           A  3387    ;       Spill Code: 0 (instruction)
                           A  3388    
                           A  3389    
                           A  3390    .ENDFUNC "graphicsMode",498,"_graphicsMode"
                           A  3391    ;  499		UINT8 temp;
                           A  3392    ;  500	  /* Set text mode */
                           A  3393    ;  501	  writeCommand(RA8875_MWCR0);
                           A  3394    ;  502	  temp = RA8875_DATA_REG;
                           A  3395    ;  503	  temp |= RA8875_MWCR0_TXTMODE; // Set 
                           A  3396    ;  504	  writeData(temp);
                           A  3397    ;  505	  
0008FF                     A  3398    _textMode:
                           A  3399    .DEFINE "_textMode"
                           A  3400    
                           A  3401    .VALUE _textMode
                           A  3402    
                           A  3403    .CLASS 2
                           A  3404    
                           A  3405    .TYPE 65
                           A  3406    
                           A  3407    .ENDEF
                           A  3408    
                           A  3409    .BEGFUNC "textMode",505,"_textMode"
                           A  3410    
                           A  3411    .LINE 505
                           A  3412    
                           A  3413    .DEFINE "temp"
                           A  3414    
                           A  3415    .CLASS 65
                           A  3416    
                           A  3417    .VALUE -1
                           A  3418    
                           A  3419    .TYPE 12
                           A  3420    
                           A  3421    .ENDEF
                           A  3422    
0008FF DDE5                A  3423    	PUSH	IX
000901 DD210000 00         A  3424    	LD	IX,0
000906 DD39                A  3425    	ADD	IX,SP
000908 3B                  A  3426    	DEC	SP
                           A  3427    ;  506	/* Select the internal (ROM) font */
                           A  3428    ;  507	  writeCommand(0x21);
                           A  3429    ;  508	  temp = RA8875_DATA_REG;
                           A  3430    .LINE 508
                           A  3431    
000909 01400000            A  3432    	LD	BC,64
00090D C5                  A  3433    	PUSH	BC
00090E CD 76 1E 00         A  3434    	CALL	_writeCommand
000912 C1                  A  3435    	POP	BC
                           A  3436    ;  509	  temp &= ~((1<<7) | (1<<5)); // Clear 
                           A  3437    .LINE 509
                           A  3438    
000913 3A0000D0            A  3439    	LD	A,(13631488)
000917 DD77FF              A  3440    	LD	(IX+%FFFFFFFF),A
                           A  3441    ;  510	  writeData(temp);
                           A  3442    .LINE 510
                           A  3443    
00091A DD7EFF              A  3444    	LD	A,(IX+%FFFFFFFF)
00091D CBFF                A  3445    	SET	%7,A
00091F DD77FF              A  3446    	LD	(IX+%FFFFFFFF),A
                           A  3447    ;  511	}
                           A  3448    .LINE 511
                           A  3449    
000922 DD4EFF              A  3450    	LD	C,(IX+%FFFFFFFF)
000925 0600                A  3451    	LD	B,%0
000927 C5                  A  3452    	PUSH	BC
000928 CD 8B 1E 00         A  3453    	CALL	_writeData
00092C C1                  A  3454    	POP	BC
                           A  3455    ;  512	void switchTimes16(void)
                           A  3456    ;  513	{
                           A  3457    ;  514		writeReg(0x21,0x20);
                           A  3458    .LINE 514
                           A  3459    
00092D 01210000            A  3460    	LD	BC,33
000931 C5                  A  3461    	PUSH	BC
000932 CD 76 1E 00         A  3462    	CALL	_writeCommand
000936 C1                  A  3463    	POP	BC
                           A  3464    ;  515		writeReg(0x06,0x03);
                           A  3465    .LINE 515
                           A  3466    
000937 3A0000D0            A  3467    	LD	A,(13631488)
00093B DD77FF              A  3468    	LD	(IX+%FFFFFFFF),A
                           A  3469    ;  516		writeReg(0x05,0x0);
                           A  3470    .LINE 516
                           A  3471    
00093E DD7EFF              A  3472    	LD	A,(IX+%FFFFFFFF)
000941 E65F                A  3473    	AND	A,%5F
000943 DD77FF              A  3474    	LD	(IX+%FFFFFFFF),A
                           A  3475    ;  517		writeReg(0x2E,0x02);
                           A  3476    .LINE 517
                           A  3477    
000946 DD4EFF              A  3478    	LD	C,(IX+%FFFFFFFF)
000949 0600                A  3479    	LD	B,%0
00094B C5                  A  3480    	PUSH	BC
00094C CD 8B 1E 00         A  3481    	CALL	_writeData
000950 C1                  A  3482    	POP	BC
                           A  3483    ;  518		writeReg(0x2F,0x92);
                           A  3484    .LINE 518
                           A  3485    
000951 DDF9                A  3486    	LD	SP,IX
000953 DDE1                A  3487    	POP	IX
000955 C9                  A  3488    	RET	
                           A  3489    
                           A  3490    
                           A  3491    ;**************************** _textMode *******
                           A  3492    ;Name                         Addr/Register   S
                           A  3493    ;_writeData                          IMPORT  --
                           A  3494    ;_writeCommand                       IMPORT  --
                           A  3495    ;temp                                  IX-1    
                           A  3496    
                           A  3497    
                           A  3498    ; Stack Frame Size: 7 (bytes)
                           A  3499    ;       Spill Code: 0 (instruction)
                           A  3500    
                           A  3501    
                           A  3502    .ENDFUNC "textMode",518,"_textMode"
                           A  3503    ;  519		writeReg(0x4E,24);
                           A  3504    ;  520		writeReg(0x4F,24);
000956                     A  3505    _switchTimes16:
                           A  3506    .DEFINE "_switchTimes16"
                           A  3507    
                           A  3508    .VALUE _switchTimes16
                           A  3509    
                           A  3510    .CLASS 2
                           A  3511    
                           A  3512    .TYPE 65
                           A  3513    
                           A  3514    .ENDEF
                           A  3515    
                           A  3516    .BEGFUNC "switchTimes16",520,"_switchTimes16"
                           A  3517    
000956 DDE5                A  3518    	PUSH	IX
000958 DD210000 00         A  3519    	LD	IX,0
00095D DD39                A  3520    	ADD	IX,SP
                           A  3521    ;  521	}
                           A  3522    .LINE 521
                           A  3523    
00095F 01200000            A  3524    	LD	BC,32
000963 C5                  A  3525    	PUSH	BC
000964 01210000            A  3526    	LD	BC,33
000968 C5                  A  3527    	PUSH	BC
000969 CD 4E 1F 00         A  3528    	CALL	_writeReg
00096D C1                  A  3529    	POP	BC
00096E C1                  A  3530    	POP	BC
                           A  3531    ;  522	void switchArial16(void)
                           A  3532    .LINE 522
                           A  3533    
00096F 01030000            A  3534    	LD	BC,3
000973 C5                  A  3535    	PUSH	BC
000974 01060000            A  3536    	LD	BC,6
000978 C5                  A  3537    	PUSH	BC
000979 CD 4E 1F 00         A  3538    	CALL	_writeReg
00097D C1                  A  3539    	POP	BC
00097E C1                  A  3540    	POP	BC
                           A  3541    ;  523	{
                           A  3542    .LINE 523
                           A  3543    
00097F 01000000            A  3544    	LD	BC,0
000983 C5                  A  3545    	PUSH	BC
000984 01050000            A  3546    	LD	BC,5
000988 C5                  A  3547    	PUSH	BC
000989 CD 4E 1F 00         A  3548    	CALL	_writeReg
00098D C1                  A  3549    	POP	BC
00098E C1                  A  3550    	POP	BC
                           A  3551    ;  524		writeReg(0x21,0x20);
                           A  3552    .LINE 524
                           A  3553    
00098F 01020000            A  3554    	LD	BC,2
000993 C5                  A  3555    	PUSH	BC
000994 012E0000            A  3556    	LD	BC,46
000998 C5                  A  3557    	PUSH	BC
000999 CD 4E 1F 00         A  3558    	CALL	_writeReg
00099D C1                  A  3559    	POP	BC
00099E C1                  A  3560    	POP	BC
                           A  3561    ;  525		writeReg(0x06,0x03);
                           A  3562    .LINE 525
                           A  3563    
00099F 01920000            A  3564    	LD	BC,146
0009A3 C5                  A  3565    	PUSH	BC
0009A4 012F0000            A  3566    	LD	BC,47
0009A8 C5                  A  3567    	PUSH	BC
0009A9 CD 4E 1F 00         A  3568    	CALL	_writeReg
0009AD C1                  A  3569    	POP	BC
0009AE C1                  A  3570    	POP	BC
                           A  3571    ;  526		writeReg(0x05,0x0);
                           A  3572    .LINE 526
                           A  3573    
0009AF 01180000            A  3574    	LD	BC,24
0009B3 C5                  A  3575    	PUSH	BC
0009B4 014E0000            A  3576    	LD	BC,78
0009B8 C5                  A  3577    	PUSH	BC
0009B9 CD 4E 1F 00         A  3578    	CALL	_writeReg
0009BD C1                  A  3579    	POP	BC
0009BE C1                  A  3580    	POP	BC
                           A  3581    ;  527		writeReg(0x2E,0x02);
                           A  3582    .LINE 527
                           A  3583    
0009BF 01180000            A  3584    	LD	BC,24
0009C3 C5                  A  3585    	PUSH	BC
0009C4 014F0000            A  3586    	LD	BC,79
0009C8 C5                  A  3587    	PUSH	BC
0009C9 CD 4E 1F 00         A  3588    	CALL	_writeReg
0009CD C1                  A  3589    	POP	BC
0009CE C1                  A  3590    	POP	BC
                           A  3591    ;  528		writeReg(0x2F,0x91);
                           A  3592    .LINE 528
                           A  3593    
0009CF DDF9                A  3594    	LD	SP,IX
0009D1 DDE1                A  3595    	POP	IX
0009D3 C9                  A  3596    	RET	
                           A  3597    
                           A  3598    
                           A  3599    ;**************************** _switchTimes16 **
                           A  3600    ;Name                         Addr/Register   S
                           A  3601    ;_writeReg                           IMPORT  --
                           A  3602    
                           A  3603    
                           A  3604    ; Stack Frame Size: 6 (bytes)
                           A  3605    ;       Spill Code: 0 (instruction)
                           A  3606    
                           A  3607    
                           A  3608    .ENDFUNC "switchTimes16",528,"_switchTimes16"
                           A  3609    ;  529		writeReg(0x4E,24);
                           A  3610    ;  530		writeReg(0x4F,24);
0009D4                     A  3611    _switchArial16:
                           A  3612    .DEFINE "_switchArial16"
                           A  3613    
                           A  3614    .VALUE _switchArial16
                           A  3615    
                           A  3616    .CLASS 2
                           A  3617    
                           A  3618    .TYPE 65
                           A  3619    
                           A  3620    .ENDEF
                           A  3621    
                           A  3622    .BEGFUNC "switchArial16",530,"_switchArial16"
                           A  3623    
0009D4 DDE5                A  3624    	PUSH	IX
0009D6 DD210000 00         A  3625    	LD	IX,0
0009DB DD39                A  3626    	ADD	IX,SP
                           A  3627    ;  531	}
                           A  3628    .LINE 531
                           A  3629    
0009DD 01200000            A  3630    	LD	BC,32
0009E1 C5                  A  3631    	PUSH	BC
0009E2 01210000            A  3632    	LD	BC,33
0009E6 C5                  A  3633    	PUSH	BC
0009E7 CD 4E 1F 00         A  3634    	CALL	_writeReg
0009EB C1                  A  3635    	POP	BC
0009EC C1                  A  3636    	POP	BC
                           A  3637    ;  532	void switchTimes24(void)
                           A  3638    .LINE 532
                           A  3639    
0009ED 01030000            A  3640    	LD	BC,3
0009F1 C5                  A  3641    	PUSH	BC
0009F2 01060000            A  3642    	LD	BC,6
0009F6 C5                  A  3643    	PUSH	BC
0009F7 CD 4E 1F 00         A  3644    	CALL	_writeReg
0009FB C1                  A  3645    	POP	BC
0009FC C1                  A  3646    	POP	BC
                           A  3647    ;  533	{
                           A  3648    .LINE 533
                           A  3649    
0009FD 01000000            A  3650    	LD	BC,0
000A01 C5                  A  3651    	PUSH	BC
000A02 01050000            A  3652    	LD	BC,5
000A06 C5                  A  3653    	PUSH	BC
000A07 CD 4E 1F 00         A  3654    	CALL	_writeReg
000A0B C1                  A  3655    	POP	BC
000A0C C1                  A  3656    	POP	BC
                           A  3657    ;  534		writeReg(0x21,0x20);
                           A  3658    .LINE 534
                           A  3659    
000A0D 01020000            A  3660    	LD	BC,2
000A11 C5                  A  3661    	PUSH	BC
000A12 012E0000            A  3662    	LD	BC,46
000A16 C5                  A  3663    	PUSH	BC
000A17 CD 4E 1F 00         A  3664    	CALL	_writeReg
000A1B C1                  A  3665    	POP	BC
000A1C C1                  A  3666    	POP	BC
                           A  3667    ;  535		writeReg(0x06,0x03);
                           A  3668    .LINE 535
                           A  3669    
000A1D 01910000            A  3670    	LD	BC,145
000A21 C5                  A  3671    	PUSH	BC
000A22 012F0000            A  3672    	LD	BC,47
000A26 C5                  A  3673    	PUSH	BC
000A27 CD 4E 1F 00         A  3674    	CALL	_writeReg
000A2B C1                  A  3675    	POP	BC
000A2C C1                  A  3676    	POP	BC
                           A  3677    ;  536		writeReg(0x05,0x0);
                           A  3678    .LINE 536
                           A  3679    
000A2D 01180000            A  3680    	LD	BC,24
000A31 C5                  A  3681    	PUSH	BC
000A32 014E0000            A  3682    	LD	BC,78
000A36 C5                  A  3683    	PUSH	BC
000A37 CD 4E 1F 00         A  3684    	CALL	_writeReg
000A3B C1                  A  3685    	POP	BC
000A3C C1                  A  3686    	POP	BC
                           A  3687    ;  537		writeReg(0x2E,0x43);
                           A  3688    .LINE 537
                           A  3689    
000A3D 01180000            A  3690    	LD	BC,24
000A41 C5                  A  3691    	PUSH	BC
000A42 014F0000            A  3692    	LD	BC,79
000A46 C5                  A  3693    	PUSH	BC
000A47 CD 4E 1F 00         A  3694    	CALL	_writeReg
000A4B C1                  A  3695    	POP	BC
000A4C C1                  A  3696    	POP	BC
                           A  3697    ;  538		writeReg(0x2F,0x92);
                           A  3698    .LINE 538
                           A  3699    
000A4D DDF9                A  3700    	LD	SP,IX
000A4F DDE1                A  3701    	POP	IX
000A51 C9                  A  3702    	RET	
                           A  3703    
                           A  3704    
                           A  3705    ;**************************** _switchArial16 **
                           A  3706    ;Name                         Addr/Register   S
                           A  3707    ;_writeReg                           IMPORT  --
                           A  3708    
                           A  3709    
                           A  3710    ; Stack Frame Size: 6 (bytes)
                           A  3711    ;       Spill Code: 0 (instruction)
                           A  3712    
                           A  3713    
                           A  3714    .ENDFUNC "switchArial16",538,"_switchArial16"
                           A  3715    ;  539		writeReg(0x4E,24);
                           A  3716    ;  540		writeReg(0x4F,24);
000A52                     A  3717    _switchTimes24:
                           A  3718    .DEFINE "_switchTimes24"
                           A  3719    
                           A  3720    .VALUE _switchTimes24
                           A  3721    
                           A  3722    .CLASS 2
                           A  3723    
                           A  3724    .TYPE 65
                           A  3725    
                           A  3726    .ENDEF
                           A  3727    
                           A  3728    .BEGFUNC "switchTimes24",540,"_switchTimes24"
                           A  3729    
000A52 DDE5                A  3730    	PUSH	IX
000A54 DD210000 00         A  3731    	LD	IX,0
000A59 DD39                A  3732    	ADD	IX,SP
                           A  3733    ;  541	}
                           A  3734    .LINE 541
                           A  3735    
000A5B 01200000            A  3736    	LD	BC,32
000A5F C5                  A  3737    	PUSH	BC
000A60 01210000            A  3738    	LD	BC,33
000A64 C5                  A  3739    	PUSH	BC
000A65 CD 4E 1F 00         A  3740    	CALL	_writeReg
000A69 C1                  A  3741    	POP	BC
000A6A C1                  A  3742    	POP	BC
                           A  3743    ;  542	void switchArial24(void)
                           A  3744    .LINE 542
                           A  3745    
000A6B 01030000            A  3746    	LD	BC,3
000A6F C5                  A  3747    	PUSH	BC
000A70 01060000            A  3748    	LD	BC,6
000A74 C5                  A  3749    	PUSH	BC
000A75 CD 4E 1F 00         A  3750    	CALL	_writeReg
000A79 C1                  A  3751    	POP	BC
000A7A C1                  A  3752    	POP	BC
                           A  3753    ;  543	{
                           A  3754    .LINE 543
                           A  3755    
000A7B 01000000            A  3756    	LD	BC,0
000A7F C5                  A  3757    	PUSH	BC
000A80 01050000            A  3758    	LD	BC,5
000A84 C5                  A  3759    	PUSH	BC
000A85 CD 4E 1F 00         A  3760    	CALL	_writeReg
000A89 C1                  A  3761    	POP	BC
000A8A C1                  A  3762    	POP	BC
                           A  3763    ;  544		writeReg(0x21,0x20);
                           A  3764    .LINE 544
                           A  3765    
000A8B 01430000            A  3766    	LD	BC,67
000A8F C5                  A  3767    	PUSH	BC
000A90 012E0000            A  3768    	LD	BC,46
000A94 C5                  A  3769    	PUSH	BC
000A95 CD 4E 1F 00         A  3770    	CALL	_writeReg
000A99 C1                  A  3771    	POP	BC
000A9A C1                  A  3772    	POP	BC
                           A  3773    ;  545		writeReg(0x06,0x03);
                           A  3774    .LINE 545
                           A  3775    
000A9B 01920000            A  3776    	LD	BC,146
000A9F C5                  A  3777    	PUSH	BC
000AA0 012F0000            A  3778    	LD	BC,47
000AA4 C5                  A  3779    	PUSH	BC
000AA5 CD 4E 1F 00         A  3780    	CALL	_writeReg
000AA9 C1                  A  3781    	POP	BC
000AAA C1                  A  3782    	POP	BC
                           A  3783    ;  546		writeReg(0x05,0x0);
                           A  3784    .LINE 546
                           A  3785    
000AAB 01180000            A  3786    	LD	BC,24
000AAF C5                  A  3787    	PUSH	BC
000AB0 014E0000            A  3788    	LD	BC,78
000AB4 C5                  A  3789    	PUSH	BC
000AB5 CD 4E 1F 00         A  3790    	CALL	_writeReg
000AB9 C1                  A  3791    	POP	BC
000ABA C1                  A  3792    	POP	BC
                           A  3793    ;  547		writeReg(0x2E,0x43);
                           A  3794    .LINE 547
                           A  3795    
000ABB 01180000            A  3796    	LD	BC,24
000ABF C5                  A  3797    	PUSH	BC
000AC0 014F0000            A  3798    	LD	BC,79
000AC4 C5                  A  3799    	PUSH	BC
000AC5 CD 4E 1F 00         A  3800    	CALL	_writeReg
000AC9 C1                  A  3801    	POP	BC
000ACA C1                  A  3802    	POP	BC
                           A  3803    ;  548		writeReg(0x2F,0x91);
                           A  3804    .LINE 548
                           A  3805    
000ACB DDF9                A  3806    	LD	SP,IX
000ACD DDE1                A  3807    	POP	IX
000ACF C9                  A  3808    	RET	
                           A  3809    
                           A  3810    
                           A  3811    ;**************************** _switchTimes24 **
                           A  3812    ;Name                         Addr/Register   S
                           A  3813    ;_writeReg                           IMPORT  --
                           A  3814    
                           A  3815    
                           A  3816    ; Stack Frame Size: 6 (bytes)
                           A  3817    ;       Spill Code: 0 (instruction)
                           A  3818    
                           A  3819    
                           A  3820    .ENDFUNC "switchTimes24",548,"_switchTimes24"
                           A  3821    ;  549		writeReg(0x4E,24);
                           A  3822    ;  550		writeReg(0x4F,24);
000AD0                     A  3823    _switchArial24:
                           A  3824    .DEFINE "_switchArial24"
                           A  3825    
                           A  3826    .VALUE _switchArial24
                           A  3827    
                           A  3828    .CLASS 2
                           A  3829    
                           A  3830    .TYPE 65
                           A  3831    
                           A  3832    .ENDEF
                           A  3833    
                           A  3834    .BEGFUNC "switchArial24",550,"_switchArial24"
                           A  3835    
000AD0 DDE5                A  3836    	PUSH	IX
000AD2 DD210000 00         A  3837    	LD	IX,0
000AD7 DD39                A  3838    	ADD	IX,SP
                           A  3839    ;  551	}
                           A  3840    .LINE 551
                           A  3841    
000AD9 01200000            A  3842    	LD	BC,32
000ADD C5                  A  3843    	PUSH	BC
000ADE 01210000            A  3844    	LD	BC,33
000AE2 C5                  A  3845    	PUSH	BC
000AE3 CD 4E 1F 00         A  3846    	CALL	_writeReg
000AE7 C1                  A  3847    	POP	BC
000AE8 C1                  A  3848    	POP	BC
                           A  3849    ;  552	void switchTimes32(void)
                           A  3850    .LINE 552
                           A  3851    
000AE9 01030000            A  3852    	LD	BC,3
000AED C5                  A  3853    	PUSH	BC
000AEE 01060000            A  3854    	LD	BC,6
000AF2 C5                  A  3855    	PUSH	BC
000AF3 CD 4E 1F 00         A  3856    	CALL	_writeReg
000AF7 C1                  A  3857    	POP	BC
000AF8 C1                  A  3858    	POP	BC
                           A  3859    ;  553	{
                           A  3860    .LINE 553
                           A  3861    
000AF9 01000000            A  3862    	LD	BC,0
000AFD C5                  A  3863    	PUSH	BC
000AFE 01050000            A  3864    	LD	BC,5
000B02 C5                  A  3865    	PUSH	BC
000B03 CD 4E 1F 00         A  3866    	CALL	_writeReg
000B07 C1                  A  3867    	POP	BC
000B08 C1                  A  3868    	POP	BC
                           A  3869    ;  554		writeReg(0x21,0x20);
                           A  3870    .LINE 554
                           A  3871    
000B09 01430000            A  3872    	LD	BC,67
000B0D C5                  A  3873    	PUSH	BC
000B0E 012E0000            A  3874    	LD	BC,46
000B12 C5                  A  3875    	PUSH	BC
000B13 CD 4E 1F 00         A  3876    	CALL	_writeReg
000B17 C1                  A  3877    	POP	BC
000B18 C1                  A  3878    	POP	BC
                           A  3879    ;  555		writeReg(0x06,0x03);
                           A  3880    .LINE 555
                           A  3881    
000B19 01910000            A  3882    	LD	BC,145
000B1D C5                  A  3883    	PUSH	BC
000B1E 012F0000            A  3884    	LD	BC,47
000B22 C5                  A  3885    	PUSH	BC
000B23 CD 4E 1F 00         A  3886    	CALL	_writeReg
000B27 C1                  A  3887    	POP	BC
000B28 C1                  A  3888    	POP	BC
                           A  3889    ;  556		writeReg(0x05,0x0);
                           A  3890    .LINE 556
                           A  3891    
000B29 01180000            A  3892    	LD	BC,24
000B2D C5                  A  3893    	PUSH	BC
000B2E 014E0000            A  3894    	LD	BC,78
000B32 C5                  A  3895    	PUSH	BC
000B33 CD 4E 1F 00         A  3896    	CALL	_writeReg
000B37 C1                  A  3897    	POP	BC
000B38 C1                  A  3898    	POP	BC
                           A  3899    ;  557		writeReg(0x2E,0x84);
                           A  3900    .LINE 557
                           A  3901    
000B39 01180000            A  3902    	LD	BC,24
000B3D C5                  A  3903    	PUSH	BC
000B3E 014F0000            A  3904    	LD	BC,79
000B42 C5                  A  3905    	PUSH	BC
000B43 CD 4E 1F 00         A  3906    	CALL	_writeReg
000B47 C1                  A  3907    	POP	BC
000B48 C1                  A  3908    	POP	BC
                           A  3909    ;  558		writeReg(0x2F,0x92);
                           A  3910    .LINE 558
                           A  3911    
000B49 DDF9                A  3912    	LD	SP,IX
000B4B DDE1                A  3913    	POP	IX
000B4D C9                  A  3914    	RET	
                           A  3915    
                           A  3916    
                           A  3917    ;**************************** _switchArial24 **
                           A  3918    ;Name                         Addr/Register   S
                           A  3919    ;_writeReg                           IMPORT  --
                           A  3920    
                           A  3921    
                           A  3922    ; Stack Frame Size: 6 (bytes)
                           A  3923    ;       Spill Code: 0 (instruction)
                           A  3924    
                           A  3925    
                           A  3926    .ENDFUNC "switchArial24",558,"_switchArial24"
                           A  3927    ;  559		writeReg(0x4E,24);
                           A  3928    ;  560		writeReg(0x4F,24);
000B4E                     A  3929    _switchTimes32:
                           A  3930    .DEFINE "_switchTimes32"
                           A  3931    
                           A  3932    .VALUE _switchTimes32
                           A  3933    
                           A  3934    .CLASS 2
                           A  3935    
                           A  3936    .TYPE 65
                           A  3937    
                           A  3938    .ENDEF
                           A  3939    
                           A  3940    .BEGFUNC "switchTimes32",560,"_switchTimes32"
                           A  3941    
000B4E DDE5                A  3942    	PUSH	IX
000B50 DD210000 00         A  3943    	LD	IX,0
000B55 DD39                A  3944    	ADD	IX,SP
                           A  3945    ;  561	}
                           A  3946    .LINE 561
                           A  3947    
000B57 01200000            A  3948    	LD	BC,32
000B5B C5                  A  3949    	PUSH	BC
000B5C 01210000            A  3950    	LD	BC,33
000B60 C5                  A  3951    	PUSH	BC
000B61 CD 4E 1F 00         A  3952    	CALL	_writeReg
000B65 C1                  A  3953    	POP	BC
000B66 C1                  A  3954    	POP	BC
                           A  3955    ;  562	void switchArial32(void)
                           A  3956    .LINE 562
                           A  3957    
000B67 01030000            A  3958    	LD	BC,3
000B6B C5                  A  3959    	PUSH	BC
000B6C 01060000            A  3960    	LD	BC,6
000B70 C5                  A  3961    	PUSH	BC
000B71 CD 4E 1F 00         A  3962    	CALL	_writeReg
000B75 C1                  A  3963    	POP	BC
000B76 C1                  A  3964    	POP	BC
                           A  3965    ;  563	{
                           A  3966    .LINE 563
                           A  3967    
000B77 01000000            A  3968    	LD	BC,0
000B7B C5                  A  3969    	PUSH	BC
000B7C 01050000            A  3970    	LD	BC,5
000B80 C5                  A  3971    	PUSH	BC
000B81 CD 4E 1F 00         A  3972    	CALL	_writeReg
000B85 C1                  A  3973    	POP	BC
000B86 C1                  A  3974    	POP	BC
                           A  3975    ;  564		writeReg(0x21,0x20);
                           A  3976    .LINE 564
                           A  3977    
000B87 01840000            A  3978    	LD	BC,132
000B8B C5                  A  3979    	PUSH	BC
000B8C 012E0000            A  3980    	LD	BC,46
000B90 C5                  A  3981    	PUSH	BC
000B91 CD 4E 1F 00         A  3982    	CALL	_writeReg
000B95 C1                  A  3983    	POP	BC
000B96 C1                  A  3984    	POP	BC
                           A  3985    ;  565		writeReg(0x06,0x03);
                           A  3986    .LINE 565
                           A  3987    
000B97 01920000            A  3988    	LD	BC,146
000B9B C5                  A  3989    	PUSH	BC
000B9C 012F0000            A  3990    	LD	BC,47
000BA0 C5                  A  3991    	PUSH	BC
000BA1 CD 4E 1F 00         A  3992    	CALL	_writeReg
000BA5 C1                  A  3993    	POP	BC
000BA6 C1                  A  3994    	POP	BC
                           A  3995    ;  566		writeReg(0x05,0x0);
                           A  3996    .LINE 566
                           A  3997    
000BA7 01180000            A  3998    	LD	BC,24
000BAB C5                  A  3999    	PUSH	BC
000BAC 014E0000            A  4000    	LD	BC,78
000BB0 C5                  A  4001    	PUSH	BC
000BB1 CD 4E 1F 00         A  4002    	CALL	_writeReg
000BB5 C1                  A  4003    	POP	BC
000BB6 C1                  A  4004    	POP	BC
                           A  4005    ;  567		writeReg(0x2E,0x84);
                           A  4006    .LINE 567
                           A  4007    
000BB7 01180000            A  4008    	LD	BC,24
000BBB C5                  A  4009    	PUSH	BC
000BBC 014F0000            A  4010    	LD	BC,79
000BC0 C5                  A  4011    	PUSH	BC
000BC1 CD 4E 1F 00         A  4012    	CALL	_writeReg
000BC5 C1                  A  4013    	POP	BC
000BC6 C1                  A  4014    	POP	BC
                           A  4015    ;  568		writeReg(0x2F,0x91);
                           A  4016    .LINE 568
                           A  4017    
000BC7 DDF9                A  4018    	LD	SP,IX
000BC9 DDE1                A  4019    	POP	IX
000BCB C9                  A  4020    	RET	
                           A  4021    
                           A  4022    
                           A  4023    ;**************************** _switchTimes32 **
                           A  4024    ;Name                         Addr/Register   S
                           A  4025    ;_writeReg                           IMPORT  --
                           A  4026    
                           A  4027    
                           A  4028    ; Stack Frame Size: 6 (bytes)
                           A  4029    ;       Spill Code: 0 (instruction)
                           A  4030    
                           A  4031    
                           A  4032    .ENDFUNC "switchTimes32",568,"_switchTimes32"
                           A  4033    ;  569		writeReg(0x4E,24);
                           A  4034    ;  570		writeReg(0x4F,24);
000BCC                     A  4035    _switchArial32:
                           A  4036    .DEFINE "_switchArial32"
                           A  4037    
                           A  4038    .VALUE _switchArial32
                           A  4039    
                           A  4040    .CLASS 2
                           A  4041    
                           A  4042    .TYPE 65
                           A  4043    
                           A  4044    .ENDEF
                           A  4045    
                           A  4046    .BEGFUNC "switchArial32",570,"_switchArial32"
                           A  4047    
000BCC DDE5                A  4048    	PUSH	IX
000BCE DD210000 00         A  4049    	LD	IX,0
000BD3 DD39                A  4050    	ADD	IX,SP
                           A  4051    ;  571	}
                           A  4052    .LINE 571
                           A  4053    
000BD5 01200000            A  4054    	LD	BC,32
000BD9 C5                  A  4055    	PUSH	BC
000BDA 01210000            A  4056    	LD	BC,33
000BDE C5                  A  4057    	PUSH	BC
000BDF CD 4E 1F 00         A  4058    	CALL	_writeReg
000BE3 C1                  A  4059    	POP	BC
000BE4 C1                  A  4060    	POP	BC
                           A  4061    ;  572	/**************************************
                           A  4062    .LINE 572
                           A  4063    
000BE5 01030000            A  4064    	LD	BC,3
000BE9 C5                  A  4065    	PUSH	BC
000BEA 01060000            A  4066    	LD	BC,6
000BEE C5                  A  4067    	PUSH	BC
000BEF CD 4E 1F 00         A  4068    	CALL	_writeReg
000BF3 C1                  A  4069    	POP	BC
000BF4 C1                  A  4070    	POP	BC
                           A  4071    ;  573	/*!
                           A  4072    .LINE 573
                           A  4073    
000BF5 01000000            A  4074    	LD	BC,0
000BF9 C5                  A  4075    	PUSH	BC
000BFA 01050000            A  4076    	LD	BC,5
000BFE C5                  A  4077    	PUSH	BC
000BFF CD 4E 1F 00         A  4078    	CALL	_writeReg
000C03 C1                  A  4079    	POP	BC
000C04 C1                  A  4080    	POP	BC
                           A  4081    ;  574	      Sets the display in text mode (as
                           A  4082    .LINE 574
                           A  4083    
000C05 01840000            A  4084    	LD	BC,132
000C09 C5                  A  4085    	PUSH	BC
000C0A 012E0000            A  4086    	LD	BC,46
000C0E C5                  A  4087    	PUSH	BC
000C0F CD 4E 1F 00         A  4088    	CALL	_writeReg
000C13 C1                  A  4089    	POP	BC
000C14 C1                  A  4090    	POP	BC
                           A  4091    ;  575	      
                           A  4092    .LINE 575
                           A  4093    
000C15 01910000            A  4094    	LD	BC,145
000C19 C5                  A  4095    	PUSH	BC
000C1A 012F0000            A  4096    	LD	BC,47
000C1E C5                  A  4097    	PUSH	BC
000C1F CD 4E 1F 00         A  4098    	CALL	_writeReg
000C23 C1                  A  4099    	POP	BC
000C24 C1                  A  4100    	POP	BC
                           A  4101    ;  576	      @args x[in] The x position of the
                           A  4102    .LINE 576
                           A  4103    
000C25 01180000            A  4104    	LD	BC,24
000C29 C5                  A  4105    	PUSH	BC
000C2A 014E0000            A  4106    	LD	BC,78
000C2E C5                  A  4107    	PUSH	BC
000C2F CD 4E 1F 00         A  4108    	CALL	_writeReg
000C33 C1                  A  4109    	POP	BC
000C34 C1                  A  4110    	POP	BC
                           A  4111    ;  577	      @args y[in] The y position of the
                           A  4112    .LINE 577
                           A  4113    
000C35 01180000            A  4114    	LD	BC,24
000C39 C5                  A  4115    	PUSH	BC
000C3A 014F0000            A  4116    	LD	BC,79
000C3E C5                  A  4117    	PUSH	BC
000C3F CD 4E 1F 00         A  4118    	CALL	_writeReg
000C43 C1                  A  4119    	POP	BC
000C44 C1                  A  4120    	POP	BC
                           A  4121    ;  578	*/
                           A  4122    .LINE 578
                           A  4123    
000C45 DDF9                A  4124    	LD	SP,IX
000C47 DDE1                A  4125    	POP	IX
000C49 C9                  A  4126    	RET	
                           A  4127    
                           A  4128    
                           A  4129    ;**************************** _switchArial32 **
                           A  4130    ;Name                         Addr/Register   S
                           A  4131    ;_writeReg                           IMPORT  --
                           A  4132    
                           A  4133    
                           A  4134    ; Stack Frame Size: 6 (bytes)
                           A  4135    ;       Spill Code: 0 (instruction)
                           A  4136    
                           A  4137    
                           A  4138    .ENDFUNC "switchArial32",578,"_switchArial32"
                           A  4139    ;  579	/**************************************
                           A  4140    ;  580	void textSetCursor(UINT16 x, UINT16 y) 
                           A  4141    ;  581	{
                           A  4142    ;  582	  /* Set cursor location */
                           A  4143    ;  583	  writeCommand(0x2A);
                           A  4144    ;  584	  writeData(x & 0xFF);
                           A  4145    ;  585	  writeCommand(0x2B);
                           A  4146    ;  586	  writeData(x >> 8);
                           A  4147    ;  587	  writeCommand(0x2C);
                           A  4148    ;  588	  writeData(y & 0xFF);
000C4A                     A  4149    _textSetCursor:
                           A  4150    .DEFINE "_textSetCursor"
                           A  4151    
                           A  4152    .VALUE _textSetCursor
                           A  4153    
                           A  4154    .CLASS 2
                           A  4155    
                           A  4156    .TYPE 65
                           A  4157    
                           A  4158    .ENDEF
                           A  4159    
                           A  4160    .BEGFUNC "textSetCursor",588,"_textSetCursor"
                           A  4161    
                           A  4162    .LINE 588
                           A  4163    
                           A  4164    .DEFINE "x"
                           A  4165    
                           A  4166    .CLASS 65
                           A  4167    
                           A  4168    .VALUE 6
                           A  4169    
                           A  4170    .TYPE 13
                           A  4171    
                           A  4172    .ENDEF
                           A  4173    
                           A  4174    .DEFINE "y"
                           A  4175    
                           A  4176    .CLASS 65
                           A  4177    
                           A  4178    .VALUE 9
                           A  4179    
                           A  4180    .TYPE 13
                           A  4181    
                           A  4182    .ENDEF
                           A  4183    
000C4A DDE5                A  4184    	PUSH	IX
000C4C DD210000 00         A  4185    	LD	IX,0
000C51 DD39                A  4186    	ADD	IX,SP
                           A  4187    ;  589	  writeCommand(0x2D);
                           A  4188    ;  590	  writeData(y >> 8);
                           A  4189    .LINE 590
                           A  4190    
000C53 012A0000            A  4191    	LD	BC,42
000C57 C5                  A  4192    	PUSH	BC
000C58 CD 76 1E 00         A  4193    	CALL	_writeCommand
000C5C C1                  A  4194    	POP	BC
                           A  4195    ;  591	}
                           A  4196    .LINE 591
                           A  4197    
000C5D DD7E06              A  4198    	LD	A,(IX+%6)
000C60 4F                  A  4199    	LD	C,A
000C61 0600                A  4200    	LD	B,%0
000C63 C5                  A  4201    	PUSH	BC
000C64 CD 8B 1E 00         A  4202    	CALL	_writeData
000C68 C1                  A  4203    	POP	BC
                           A  4204    ;  592	/**************************************
                           A  4205    .LINE 592
                           A  4206    
000C69 012B0000            A  4207    	LD	BC,43
000C6D C5                  A  4208    	PUSH	BC
000C6E CD 76 1E 00         A  4209    	CALL	_writeCommand
000C72 C1                  A  4210    	POP	BC
                           A  4211    ;  593	/*!
                           A  4212    .LINE 593
                           A  4213    
000C73 DD0706              A  4214    	LD	BC,(IX+%6)
000C76 CD 00 00 00         A  4215    	CALL	__stoiu
000C7A 3E08                A  4216    	LD	A,%8
000C7C CD 00 00 00         A  4217    	CALL	__ishrs_b
000C80 4D                  A  4218    	LD	C,L
000C81 0600                A  4219    	LD	B,%0
000C83 C5                  A  4220    	PUSH	BC
000C84 CD 8B 1E 00         A  4221    	CALL	_writeData
000C88 C1                  A  4222    	POP	BC
                           A  4223    ;  594	      Sets the fore and background colo
                           A  4224    .LINE 594
                           A  4225    
000C89 012C0000            A  4226    	LD	BC,44
000C8D C5                  A  4227    	PUSH	BC
000C8E CD 76 1E 00         A  4228    	CALL	_writeCommand
000C92 C1                  A  4229    	POP	BC
                           A  4230    ;  595	      
                           A  4231    .LINE 595
                           A  4232    
000C93 DD7E09              A  4233    	LD	A,(IX+%9)
000C96 4F                  A  4234    	LD	C,A
000C97 0600                A  4235    	LD	B,%0
000C99 C5                  A  4236    	PUSH	BC
000C9A CD 8B 1E 00         A  4237    	CALL	_writeData
000C9E C1                  A  4238    	POP	BC
                           A  4239    ;  596	      @args foreColor[in] The RGB565 co
                           A  4240    .LINE 596
                           A  4241    
000C9F 012D0000            A  4242    	LD	BC,45
000CA3 C5                  A  4243    	PUSH	BC
000CA4 CD 76 1E 00         A  4244    	CALL	_writeCommand
000CA8 C1                  A  4245    	POP	BC
                           A  4246    ;  597	      @args bgColor[in]   The RGB565 co
                           A  4247    .LINE 597
                           A  4248    
000CA9 DD0709              A  4249    	LD	BC,(IX+%9)
000CAC CD 00 00 00         A  4250    	CALL	__stoiu
000CB0 3E08                A  4251    	LD	A,%8
000CB2 CD 00 00 00         A  4252    	CALL	__ishrs_b
000CB6 4D                  A  4253    	LD	C,L
000CB7 0600                A  4254    	LD	B,%0
000CB9 C5                  A  4255    	PUSH	BC
000CBA CD 8B 1E 00         A  4256    	CALL	_writeData
000CBE C1                  A  4257    	POP	BC
                           A  4258    ;  598	*/
                           A  4259    .LINE 598
                           A  4260    
000CBF DDF9                A  4261    	LD	SP,IX
000CC1 DDE1                A  4262    	POP	IX
000CC3 C9                  A  4263    	RET	
                           A  4264    
                           A  4265    
                           A  4266    ;**************************** _textSetCursor **
                           A  4267    ;Name                         Addr/Register   S
                           A  4268    ;_writeData                          IMPORT  --
                           A  4269    ;_writeCommand                       IMPORT  --
                           A  4270    ;y                                     IX+9    
                           A  4271    ;x                                     IX+6    
                           A  4272    
                           A  4273    
                           A  4274    ; Stack Frame Size: 12 (bytes)
                           A  4275    ;       Spill Code: 0 (instruction)
                           A  4276    
                           A  4277    
                           A  4278    .ENDFUNC "textSetCursor",598,"_textSetCursor"
                           A  4279    ;  599	/**************************************
                           A  4280    ;  600	void textColor(UINT16 foreColor, UINT16
                           A  4281    ;  601	{
                           A  4282    ;  602		UINT8 temp;
                           A  4283    ;  603	  /* Set Fore Color */
                           A  4284    ;  604	  writeCommand(0x63);
                           A  4285    ;  605	  writeData((foreColor & 0xf800) >> 11)
                           A  4286    ;  606	  writeCommand(0x64);
                           A  4287    ;  607	  writeData((foreColor & 0x07e0) >> 5);
                           A  4288    ;  608	  writeCommand(0x65);
000CC4                     A  4289    _textColor:
                           A  4290    .DEFINE "_textColor"
                           A  4291    
                           A  4292    .VALUE _textColor
                           A  4293    
                           A  4294    .CLASS 2
                           A  4295    
                           A  4296    .TYPE 65
                           A  4297    
                           A  4298    .ENDEF
                           A  4299    
                           A  4300    .BEGFUNC "textColor",608,"_textColor"
                           A  4301    
                           A  4302    .LINE 608
                           A  4303    
                           A  4304    .DEFINE "foreColor"
                           A  4305    
                           A  4306    .CLASS 65
                           A  4307    
                           A  4308    .VALUE 6
                           A  4309    
                           A  4310    .TYPE 13
                           A  4311    
                           A  4312    .ENDEF
                           A  4313    
                           A  4314    .DEFINE "bgColor"
                           A  4315    
                           A  4316    .CLASS 65
                           A  4317    
                           A  4318    .VALUE 9
                           A  4319    
                           A  4320    .TYPE 13
                           A  4321    
                           A  4322    .ENDEF
                           A  4323    
                           A  4324    .DEFINE "temp"
                           A  4325    
                           A  4326    .CLASS 65
                           A  4327    
                           A  4328    .VALUE -1
                           A  4329    
                           A  4330    .TYPE 12
                           A  4331    
                           A  4332    .ENDEF
                           A  4333    
000CC4 DDE5                A  4334    	PUSH	IX
000CC6 DD210000 00         A  4335    	LD	IX,0
000CCB DD39                A  4336    	ADD	IX,SP
000CCD 3B                  A  4337    	DEC	SP
                           A  4338    ;  609	  writeData((foreColor & 0x001f));
                           A  4339    ;  610	  
                           A  4340    ;  611	  /* Set Background Color */
                           A  4341    .LINE 611
                           A  4342    
000CCE 01630000            A  4343    	LD	BC,99
000CD2 C5                  A  4344    	PUSH	BC
000CD3 CD 76 1E 00         A  4345    	CALL	_writeCommand
000CD7 C1                  A  4346    	POP	BC
                           A  4347    ;  612	  writeCommand(0x60);
                           A  4348    .LINE 612
                           A  4349    
000CD8 DD2706              A  4350    	LD	HL,(IX+%6)
000CDB 3E0B                A  4351    	LD	A,%B
000CDD CD 00 00 00         A  4352    	CALL	__sshru_b
000CE1 E5C1                A  4353    	LD	BC,HL
000CE3 CD 00 00 00         A  4354    	CALL	__stoiu
000CE7 7D                  A  4355    	LD	A,L
000CE8 E61F                A  4356    	AND	A,%1F
000CEA 6F                  A  4357    	LD	L,A
000CEB 4D                  A  4358    	LD	C,L
000CEC 0600                A  4359    	LD	B,%0
000CEE C5                  A  4360    	PUSH	BC
000CEF CD 8B 1E 00         A  4361    	CALL	_writeData
000CF3 C1                  A  4362    	POP	BC
                           A  4363    ;  613	  writeData((bgColor & 0xf800) >> 11);
                           A  4364    .LINE 613
                           A  4365    
000CF4 01640000            A  4366    	LD	BC,100
000CF8 C5                  A  4367    	PUSH	BC
000CF9 CD 76 1E 00         A  4368    	CALL	_writeCommand
000CFD C1                  A  4369    	POP	BC
                           A  4370    ;  614	  writeCommand(0x61);
                           A  4371    .LINE 614
                           A  4372    
000CFE DD2706              A  4373    	LD	HL,(IX+%6)
000D01 3E05                A  4374    	LD	A,%5
000D03 CD 00 00 00         A  4375    	CALL	__sshru_b
000D07 E5C1                A  4376    	LD	BC,HL
000D09 CD 00 00 00         A  4377    	CALL	__stoiu
000D0D 7D                  A  4378    	LD	A,L
000D0E E63F                A  4379    	AND	A,%3F
000D10 6F                  A  4380    	LD	L,A
000D11 4D                  A  4381    	LD	C,L
000D12 0600                A  4382    	LD	B,%0
000D14 C5                  A  4383    	PUSH	BC
000D15 CD 8B 1E 00         A  4384    	CALL	_writeData
000D19 C1                  A  4385    	POP	BC
                           A  4386    ;  615	  writeData((bgColor & 0x07e0) >> 5);
                           A  4387    .LINE 615
                           A  4388    
000D1A 01650000            A  4389    	LD	BC,101
000D1E C5                  A  4390    	PUSH	BC
000D1F CD 76 1E 00         A  4391    	CALL	_writeCommand
000D23 C1                  A  4392    	POP	BC
                           A  4393    ;  616	  writeCommand(0x62);
                           A  4394    .LINE 616
                           A  4395    
000D24 DD7E06              A  4396    	LD	A,(IX+%6)
000D27 E61F                A  4397    	AND	A,%1F
000D29 4F                  A  4398    	LD	C,A
000D2A 0600                A  4399    	LD	B,%0
000D2C C5                  A  4400    	PUSH	BC
000D2D CD 8B 1E 00         A  4401    	CALL	_writeData
000D31 C1                  A  4402    	POP	BC
                           A  4403    ;  617	  writeData((bgColor & 0x001f));
                           A  4404    ;  618	  
                           A  4405    ;  619	  /* Clear transparency flag */
                           A  4406    .LINE 619
                           A  4407    
000D32 01600000            A  4408    	LD	BC,96
000D36 C5                  A  4409    	PUSH	BC
000D37 CD 76 1E 00         A  4410    	CALL	_writeCommand
000D3B C1                  A  4411    	POP	BC
                           A  4412    ;  620	  writeCommand(0x22);
                           A  4413    .LINE 620
                           A  4414    
000D3C DD2709              A  4415    	LD	HL,(IX+%9)
000D3F 3E0B                A  4416    	LD	A,%B
000D41 CD 00 00 00         A  4417    	CALL	__sshru_b
000D45 E5C1                A  4418    	LD	BC,HL
000D47 CD 00 00 00         A  4419    	CALL	__stoiu
000D4B 7D                  A  4420    	LD	A,L
000D4C E61F                A  4421    	AND	A,%1F
000D4E 6F                  A  4422    	LD	L,A
000D4F 4D                  A  4423    	LD	C,L
000D50 0600                A  4424    	LD	B,%0
000D52 C5                  A  4425    	PUSH	BC
000D53 CD 8B 1E 00         A  4426    	CALL	_writeData
000D57 C1                  A  4427    	POP	BC
                           A  4428    ;  621	  temp = RA8875_DATA_REG;
                           A  4429    .LINE 621
                           A  4430    
000D58 01610000            A  4431    	LD	BC,97
000D5C C5                  A  4432    	PUSH	BC
000D5D CD 76 1E 00         A  4433    	CALL	_writeCommand
000D61 C1                  A  4434    	POP	BC
                           A  4435    ;  622	  temp &= ~(1<<6); // Clear bit 6
                           A  4436    .LINE 622
                           A  4437    
000D62 DD2709              A  4438    	LD	HL,(IX+%9)
000D65 3E05                A  4439    	LD	A,%5
000D67 CD 00 00 00         A  4440    	CALL	__sshru_b
000D6B E5C1                A  4441    	LD	BC,HL
000D6D CD 00 00 00         A  4442    	CALL	__stoiu
000D71 7D                  A  4443    	LD	A,L
000D72 E63F                A  4444    	AND	A,%3F
000D74 6F                  A  4445    	LD	L,A
000D75 4D                  A  4446    	LD	C,L
000D76 0600                A  4447    	LD	B,%0
000D78 C5                  A  4448    	PUSH	BC
000D79 CD 8B 1E 00         A  4449    	CALL	_writeData
000D7D C1                  A  4450    	POP	BC
                           A  4451    ;  623	  writeData(temp);
                           A  4452    .LINE 623
                           A  4453    
000D7E 01620000            A  4454    	LD	BC,98
000D82 C5                  A  4455    	PUSH	BC
000D83 CD 76 1E 00         A  4456    	CALL	_writeCommand
000D87 C1                  A  4457    	POP	BC
                           A  4458    ;  624	}
                           A  4459    .LINE 624
                           A  4460    
000D88 DD7E09              A  4461    	LD	A,(IX+%9)
000D8B E61F                A  4462    	AND	A,%1F
000D8D 4F                  A  4463    	LD	C,A
000D8E 0600                A  4464    	LD	B,%0
000D90 C5                  A  4465    	PUSH	BC
000D91 CD 8B 1E 00         A  4466    	CALL	_writeData
000D95 C1                  A  4467    	POP	BC
                           A  4468    ;  625	/**************************************
                           A  4469    ;  626	/*!
                           A  4470    ;  627	      Sets the text enlarge settings, u
                           A  4471    .LINE 627
                           A  4472    
000D96 01220000            A  4473    	LD	BC,34
000D9A C5                  A  4474    	PUSH	BC
000D9B CD 76 1E 00         A  4475    	CALL	_writeCommand
000D9F C1                  A  4476    	POP	BC
                           A  4477    ;  628	      
                           A  4478    .LINE 628
                           A  4479    
000DA0 3A0000D0            A  4480    	LD	A,(13631488)
000DA4 DD77FF              A  4481    	LD	(IX+%FFFFFFFF),A
                           A  4482    ;  629	      0 = 1x zoom
                           A  4483    .LINE 629
                           A  4484    
000DA7 DD7EFF              A  4485    	LD	A,(IX+%FFFFFFFF)
000DAA CBB7                A  4486    	RES	%6,A
000DAC DD77FF              A  4487    	LD	(IX+%FFFFFFFF),A
                           A  4488    ;  630	      1 = 2x zoom
                           A  4489    .LINE 630
                           A  4490    
000DAF DD4EFF              A  4491    	LD	C,(IX+%FFFFFFFF)
000DB2 0600                A  4492    	LD	B,%0
000DB4 C5                  A  4493    	PUSH	BC
000DB5 CD 8B 1E 00         A  4494    	CALL	_writeData
000DB9 C1                  A  4495    	POP	BC
                           A  4496    ;  631	      2 = 3x zoom
                           A  4497    .LINE 631
                           A  4498    
000DBA DDF9                A  4499    	LD	SP,IX
000DBC DDE1                A  4500    	POP	IX
000DBE C9                  A  4501    	RET	
                           A  4502    
                           A  4503    
                           A  4504    ;**************************** _textColor ******
                           A  4505    ;Name                         Addr/Register   S
                           A  4506    ;_writeData                          IMPORT  --
                           A  4507    ;_writeCommand                       IMPORT  --
                           A  4508    ;temp                                  IX-1    
                           A  4509    ;bgColor                               IX+9    
                           A  4510    ;foreColor                             IX+6    
                           A  4511    
                           A  4512    
                           A  4513    ; Stack Frame Size: 13 (bytes)
                           A  4514    ;       Spill Code: 0 (instruction)
                           A  4515    
                           A  4516    
                           A  4517    .ENDFUNC "textColor",631,"_textColor"
                           A  4518    ;  632	      3 = 4x zoom
                           A  4519    ;  633	      
                           A  4520    ;  634	      @args scale[in]   The zoom factor
                           A  4521    ;  635	*/
                           A  4522    ;  636	/**************************************
                           A  4523    ;  637	void textEnlarge(UINT8 scale)
                           A  4524    ;  638	{
                           A  4525    ;  639		
                           A  4526    ;  640		UINT8 temp;
                           A  4527    ;  641	  if (scale > 3) scale = 3;
                           A  4528    ;  642	
                           A  4529    ;  643	  /* Set font size flags */
                           A  4530    ;  644	  writeCommand(0x22);
                           A  4531    ;  645	  temp = RA8875_DATA_REG;
000DBF                     A  4532    _textEnlarge:
                           A  4533    .DEFINE "_textEnlarge"
                           A  4534    
                           A  4535    .VALUE _textEnlarge
                           A  4536    
                           A  4537    .CLASS 2
                           A  4538    
                           A  4539    .TYPE 65
                           A  4540    
                           A  4541    .ENDEF
                           A  4542    
                           A  4543    .BEGFUNC "textEnlarge",645,"_textEnlarge"
                           A  4544    
                           A  4545    .LINE 645
                           A  4546    
                           A  4547    .DEFINE "scale"
                           A  4548    
                           A  4549    .CLASS 65
                           A  4550    
                           A  4551    .VALUE 6
                           A  4552    
                           A  4553    .TYPE 12
                           A  4554    
                           A  4555    .ENDEF
                           A  4556    
                           A  4557    .DEFINE "temp"
                           A  4558    
                           A  4559    .CLASS 65
                           A  4560    
                           A  4561    .VALUE -1
                           A  4562    
                           A  4563    .TYPE 12
                           A  4564    
                           A  4565    .ENDEF
                           A  4566    
000DBF DDE5                A  4567    	PUSH	IX
000DC1 DD210000 00         A  4568    	LD	IX,0
000DC6 DD39                A  4569    	ADD	IX,SP
000DC8 3B                  A  4570    	DEC	SP
                           A  4571    ;  646	  temp &= ~(0xF); // Clears bits 0..3
                           A  4572    ;  647	  temp |= scale << 2;
                           A  4573    ;  648	  temp |= scale;
                           A  4574    .LINE 648
                           A  4575    
000DC9 3E03                A  4576    	LD	A,%3
000DCB DDBE06              A  4577    	CP	A,(IX+%6)
000DCE 30 04               A  4578    	JR	NC,L_36
000DD0 DD360603            A  4579    	LD	(IX+%6),%3
000DD4                     A  4580    L_36:
                           A  4581    ;  649	  writeData(temp);  
                           A  4582    ;  650		
                           A  4583    ;  651	  _textScale = scale;
                           A  4584    .LINE 651
                           A  4585    
000DD4 01220000            A  4586    	LD	BC,34
000DD8 C5                  A  4587    	PUSH	BC
000DD9 CD 76 1E 00         A  4588    	CALL	_writeCommand
000DDD C1                  A  4589    	POP	BC
                           A  4590    ;  652	  writeReg(0x4E,8*scale);
                           A  4591    .LINE 652
                           A  4592    
000DDE 3A0000D0            A  4593    	LD	A,(13631488)
000DE2 DD77FF              A  4594    	LD	(IX+%FFFFFFFF),A
                           A  4595    ;  653	  writeReg(0x4F,16*scale);
                           A  4596    .LINE 653
                           A  4597    
000DE5 DD7EFF              A  4598    	LD	A,(IX+%FFFFFFFF)
000DE8 E6F0                A  4599    	AND	A,%F0
000DEA DD77FF              A  4600    	LD	(IX+%FFFFFFFF),A
                           A  4601    ;  654	}
                           A  4602    .LINE 654
                           A  4603    
000DED DD7E06              A  4604    	LD	A,(IX+%6)
000DF0 87                  A  4605    	ADD	A,A
000DF1 87                  A  4606    	ADD	A,A
000DF2 DDB6FF              A  4607    	OR	A,(IX+%FFFFFFFF)
000DF5 DD77FF              A  4608    	LD	(IX+%FFFFFFFF),A
                           A  4609    ;  655	/**************************************
                           A  4610    .LINE 655
                           A  4611    
000DF8 DD7EFF              A  4612    	LD	A,(IX+%FFFFFFFF)
000DFB DDB606              A  4613    	OR	A,(IX+%6)
000DFE DD77FF              A  4614    	LD	(IX+%FFFFFFFF),A
                           A  4615    ;  656	/*!
                           A  4616    .LINE 656
                           A  4617    
000E01 DD4EFF              A  4618    	LD	C,(IX+%FFFFFFFF)
000E04 0600                A  4619    	LD	B,%0
000E06 C5                  A  4620    	PUSH	BC
000E07 CD 8B 1E 00         A  4621    	CALL	_writeData
000E0B C1                  A  4622    	POP	BC
                           A  4623    ;  657	      Sets the fore color when renderin
                           A  4624    ;  658	      
                           A  4625    .LINE 658
                           A  4626    
000E0C DD7E06              A  4627    	LD	A,(IX+%6)
000E0F 32 01 00 00         A  4628    	LD	(__textScale),A
                           A  4629    ;  659	      @args foreColor[in] The RGB565 co
                           A  4630    .LINE 659
                           A  4631    
000E13 DD7E06              A  4632    	LD	A,(IX+%6)
000E16 87                  A  4633    	ADD	A,A
000E17 87                  A  4634    	ADD	A,A
000E18 87                  A  4635    	ADD	A,A
000E19 4F                  A  4636    	LD	C,A
000E1A 0600                A  4637    	LD	B,%0
000E1C C5                  A  4638    	PUSH	BC
000E1D 014E0000            A  4639    	LD	BC,78
000E21 C5                  A  4640    	PUSH	BC
000E22 CD 4E 1F 00         A  4641    	CALL	_writeReg
000E26 C1                  A  4642    	POP	BC
000E27 C1                  A  4643    	POP	BC
                           A  4644    ;  660	*/
                           A  4645    .LINE 660
                           A  4646    
000E28 DD7E06              A  4647    	LD	A,(IX+%6)
000E2B 87                  A  4648    	ADD	A,A
000E2C 87                  A  4649    	ADD	A,A
000E2D 87                  A  4650    	ADD	A,A
000E2E 87                  A  4651    	ADD	A,A
000E2F 4F                  A  4652    	LD	C,A
000E30 0600                A  4653    	LD	B,%0
000E32 C5                  A  4654    	PUSH	BC
000E33 014F0000            A  4655    	LD	BC,79
000E37 C5                  A  4656    	PUSH	BC
000E38 CD 4E 1F 00         A  4657    	CALL	_writeReg
000E3C C1                  A  4658    	POP	BC
000E3D C1                  A  4659    	POP	BC
                           A  4660    ;  661	/**************************************
                           A  4661    .LINE 661
                           A  4662    
000E3E DDF9                A  4663    	LD	SP,IX
000E40 DDE1                A  4664    	POP	IX
000E42 C9                  A  4665    	RET	
                           A  4666    
                           A  4667    
                           A  4668    ;**************************** _textEnlarge ****
                           A  4669    ;Name                         Addr/Register   S
                           A  4670    ;_writeReg                           IMPORT  --
                           A  4671    ;__textScale                         STATIC    
                           A  4672    ;_writeData                          IMPORT  --
                           A  4673    ;_writeCommand                       IMPORT  --
                           A  4674    ;temp                                  IX-1    
                           A  4675    ;scale                                 IX+6    
                           A  4676    
                           A  4677    
                           A  4678    ; Stack Frame Size: 10 (bytes)
                           A  4679    ;       Spill Code: 0 (instruction)
                           A  4680    
                           A  4681    
                           A  4682    .ENDFUNC "textEnlarge",661,"_textEnlarge"
                           A  4683    ;  662	void textTransparent(UINT16 foreColor)
                           A  4684    ;  663	{
                           A  4685    ;  664		UINT8 temp;
                           A  4686    ;  665	  /* Set Fore Color */
                           A  4687    ;  666	  writeCommand(0x63);
                           A  4688    ;  667	  writeData((foreColor & 0xf800) >> 11)
                           A  4689    ;  668	  writeCommand(0x64);
                           A  4690    ;  669	  writeData((foreColor & 0x07e0) >> 5);
                           A  4691    ;  670	  writeCommand(0x65);
000E43                     A  4692    _textTransparent:
                           A  4693    .DEFINE "_textTransparent"
                           A  4694    
                           A  4695    .VALUE _textTransparent
                           A  4696    
                           A  4697    .CLASS 2
                           A  4698    
                           A  4699    .TYPE 65
                           A  4700    
                           A  4701    .ENDEF
                           A  4702    
                           A  4703    .BEGFUNC "textTransparent",670,"_textTransparen
                           A  4704    
                           A  4705    .LINE 670
                           A  4706    
                           A  4707    .DEFINE "foreColor"
                           A  4708    
                           A  4709    .CLASS 65
                           A  4710    
                           A  4711    .VALUE 6
                           A  4712    
                           A  4713    .TYPE 13
                           A  4714    
                           A  4715    .ENDEF
                           A  4716    
                           A  4717    .DEFINE "temp"
                           A  4718    
                           A  4719    .CLASS 65
                           A  4720    
                           A  4721    .VALUE -1
                           A  4722    
                           A  4723    .TYPE 12
                           A  4724    
                           A  4725    .ENDEF
                           A  4726    
000E43 DDE5                A  4727    	PUSH	IX
000E45 DD210000 00         A  4728    	LD	IX,0
000E4A DD39                A  4729    	ADD	IX,SP
000E4C 3B                  A  4730    	DEC	SP
                           A  4731    ;  671	  writeData((foreColor & 0x001f));
                           A  4732    ;  672	
                           A  4733    ;  673	  /* Set transparency flag */
                           A  4734    .LINE 673
                           A  4735    
000E4D 01630000            A  4736    	LD	BC,99
000E51 C5                  A  4737    	PUSH	BC
000E52 CD 76 1E 00         A  4738    	CALL	_writeCommand
000E56 C1                  A  4739    	POP	BC
                           A  4740    ;  674	  writeCommand(0x22);
                           A  4741    .LINE 674
                           A  4742    
000E57 DD2706              A  4743    	LD	HL,(IX+%6)
000E5A 3E0B                A  4744    	LD	A,%B
000E5C CD 00 00 00         A  4745    	CALL	__sshru_b
000E60 E5C1                A  4746    	LD	BC,HL
000E62 CD 00 00 00         A  4747    	CALL	__stoiu
000E66 7D                  A  4748    	LD	A,L
000E67 E61F                A  4749    	AND	A,%1F
000E69 6F                  A  4750    	LD	L,A
000E6A 4D                  A  4751    	LD	C,L
000E6B 0600                A  4752    	LD	B,%0
000E6D C5                  A  4753    	PUSH	BC
000E6E CD 8B 1E 00         A  4754    	CALL	_writeData
000E72 C1                  A  4755    	POP	BC
                           A  4756    ;  675	  temp = RA8875_DATA_REG;
                           A  4757    .LINE 675
                           A  4758    
000E73 01640000            A  4759    	LD	BC,100
000E77 C5                  A  4760    	PUSH	BC
000E78 CD 76 1E 00         A  4761    	CALL	_writeCommand
000E7C C1                  A  4762    	POP	BC
                           A  4763    ;  676	  temp |= (1<<6); // Set bit 6
                           A  4764    .LINE 676
                           A  4765    
000E7D DD2706              A  4766    	LD	HL,(IX+%6)
000E80 3E05                A  4767    	LD	A,%5
000E82 CD 00 00 00         A  4768    	CALL	__sshru_b
000E86 E5C1                A  4769    	LD	BC,HL
000E88 CD 00 00 00         A  4770    	CALL	__stoiu
000E8C 7D                  A  4771    	LD	A,L
000E8D E63F                A  4772    	AND	A,%3F
000E8F 6F                  A  4773    	LD	L,A
000E90 4D                  A  4774    	LD	C,L
000E91 0600                A  4775    	LD	B,%0
000E93 C5                  A  4776    	PUSH	BC
000E94 CD 8B 1E 00         A  4777    	CALL	_writeData
000E98 C1                  A  4778    	POP	BC
                           A  4779    ;  677	  writeData(temp);  
                           A  4780    .LINE 677
                           A  4781    
000E99 01650000            A  4782    	LD	BC,101
000E9D C5                  A  4783    	PUSH	BC
000E9E CD 76 1E 00         A  4784    	CALL	_writeCommand
000EA2 C1                  A  4785    	POP	BC
                           A  4786    ;  678	}
                           A  4787    .LINE 678
                           A  4788    
000EA3 DD7E06              A  4789    	LD	A,(IX+%6)
000EA6 E61F                A  4790    	AND	A,%1F
000EA8 4F                  A  4791    	LD	C,A
000EA9 0600                A  4792    	LD	B,%0
000EAB C5                  A  4793    	PUSH	BC
000EAC CD 8B 1E 00         A  4794    	CALL	_writeData
000EB0 C1                  A  4795    	POP	BC
                           A  4796    ;  679	
                           A  4797    ;  680	/**************************************
                           A  4798    ;  681	void textWrite(const char* buf)
                           A  4799    .LINE 681
                           A  4800    
000EB1 01220000            A  4801    	LD	BC,34
000EB5 C5                  A  4802    	PUSH	BC
000EB6 CD 76 1E 00         A  4803    	CALL	_writeCommand
000EBA C1                  A  4804    	POP	BC
                           A  4805    ;  682	{
                           A  4806    .LINE 682
                           A  4807    
000EBB 3A0000D0            A  4808    	LD	A,(13631488)
000EBF DD77FF              A  4809    	LD	(IX+%FFFFFFFF),A
                           A  4810    ;  683		UINT8 reg;
                           A  4811    .LINE 683
                           A  4812    
000EC2 DD7EFF              A  4813    	LD	A,(IX+%FFFFFFFF)
000EC5 CBF7                A  4814    	SET	%6,A
000EC7 DD77FF              A  4815    	LD	(IX+%FFFFFFFF),A
                           A  4816    ;  684		RZK_STATUS_t t_status;
                           A  4817    .LINE 684
                           A  4818    
000ECA DD4EFF              A  4819    	LD	C,(IX+%FFFFFFFF)
000ECD 0600                A  4820    	LD	B,%0
000ECF C5                  A  4821    	PUSH	BC
000ED0 CD 8B 1E 00         A  4822    	CALL	_writeData
000ED4 C1                  A  4823    	POP	BC
                           A  4824    ;  685		
                           A  4825    .LINE 685
                           A  4826    
000ED5 DDF9                A  4827    	LD	SP,IX
000ED7 DDE1                A  4828    	POP	IX
000ED9 C9                  A  4829    	RET	
                           A  4830    
                           A  4831    
                           A  4832    ;**************************** _textTransparent 
                           A  4833    ;Name                         Addr/Register   S
                           A  4834    ;_writeData                          IMPORT  --
                           A  4835    ;_writeCommand                       IMPORT  --
                           A  4836    ;temp                                  IX-1    
                           A  4837    ;foreColor                             IX+6    
                           A  4838    
                           A  4839    
                           A  4840    ; Stack Frame Size: 10 (bytes)
                           A  4841    ;       Spill Code: 0 (instruction)
                           A  4842    
                           A  4843    
                           A  4844    .ENDFUNC "textTransparent",685,"_textTransparen
                           A  4845    ;  686		if((buf!=NULL)&&((*buf)!=0))
                           A  4846    ;  687		{
                           A  4847    ;  688			i_text_ptr=buf;
                           A  4848    ;  689			i_text_ptr++;
000EDA                     A  4849    _textWrite:
                           A  4850    .DEFINE "_textWrite"
                           A  4851    
                           A  4852    .VALUE _textWrite
                           A  4853    
                           A  4854    .CLASS 2
                           A  4855    
                           A  4856    .TYPE 65
                           A  4857    
                           A  4858    .ENDEF
                           A  4859    
                           A  4860    .BEGFUNC "textWrite",689,"_textWrite"
                           A  4861    
                           A  4862    .LINE 689
                           A  4863    
                           A  4864    .DEFINE "buf"
                           A  4865    
                           A  4866    .CLASS 65
                           A  4867    
                           A  4868    .VALUE 6
                           A  4869    
                           A  4870    .TYPE 194
                           A  4871    
                           A  4872    .ENDEF
                           A  4873    
                           A  4874    .DEFINE "reg"
                           A  4875    
                           A  4876    .CLASS 65
                           A  4877    
                           A  4878    .VALUE -1
                           A  4879    
                           A  4880    .TYPE 12
                           A  4881    
                           A  4882    .ENDEF
                           A  4883    
                           A  4884    .DEFINE "t_status"
                           A  4885    
                           A  4886    .CLASS 65
                           A  4887    
                           A  4888    .VALUE -4
                           A  4889    
                           A  4890    .TYPE 14
                           A  4891    
                           A  4892    .ENDEF
                           A  4893    
000EDA DDE5                A  4894    	PUSH	IX
000EDC DD210000 00         A  4895    	LD	IX,0
000EE1 DD39                A  4896    	ADD	IX,SP
000EE3 C5                  A  4897    	PUSH	BC
000EE4 C5                  A  4898    	PUSH	BC
000EE5 3B                  A  4899    	DEC	SP
                           A  4900    ;  690			i_isFont=1;
                           A  4901    ;  691		/*#pragma asm
                           A  4902    ;  692			LD A,08H
                           A  4903    ;  693			OUT0 (0CFH), A
                           A  4904    .LINE 693
                           A  4905    
000EE6 DD2706              A  4906    	LD	HL,(IX+%6)
000EE9 CD 00 00 00         A  4907    	CALL	__icmpzero
000EED CA F2 0F 00         A  4908    	JR	Z,L_49
000EF1 DD2706              A  4909    	LD	HL,(IX+%6)
000EF4 7E                  A  4910    	LD	A,(HL)
000EF5 B7                  A  4911    	OR	A,A
000EF6 CA F2 0F 00         A  4912    	JR	Z,L_49
                           A  4913    ;  694			IN0	A,(0A4H)
                           A  4914    ;  695			SET 3,A
                           A  4915    .LINE 695
                           A  4916    
000EFA DD0706              A  4917    	LD	BC,(IX+%6)
000EFD ED43 0B 00 00       A  4918    	LD	(_i_text_ptr),BC
                           A  4919    ;  696			OUT0 (0A4H),A
                           A  4920    .LINE 696
                           A  4921    
000F02 ED4B 0B 00 00       A  4922    	LD	BC,(_i_text_ptr)
000F07 DD0FF9              A  4923    	LD	(IX+%FFFFFFF9),BC
000F0A ED4B 0B 00 00       A  4924    	LD	BC,(_i_text_ptr)
000F0F 03                  A  4925    	INC	BC
000F10 ED43 0B 00 00       A  4926    	LD	(_i_text_ptr),BC
                           A  4927    ;  697		#pragma endasm*/
                           A  4928    .LINE 697
                           A  4929    
000F15 3E01                A  4930    	LD	A,%1
000F17 32 0E 00 00         A  4931    	LD	(_i_isFont),A
                           A  4932    ;  698			//Clear font Interrupt RA8875
                           A  4933    ;  699			writeReg(RA8875_INTC2,RA8875_IN
                           A  4934    ;  700			//Enable font Interrupt RA8875
                           A  4935    ;  701			reg=readReg(RA8875_INTC1);
                           A  4936    ;  702			reg |=RA8875_INTC1_FONT;
                           A  4937    ;  703			writeReg(RA8875_INTC1,reg);
                           A  4938    ;  704			writeReg(RA8875_MRWC,*buf);
                           A  4939    ;  705			t_status=RZKPendOnEventGroup(eh
                           A  4940    ;  706			if(t_status!=RZKERR_SUCCESS)
                           A  4941    .LINE 706
                           A  4942    
000F1B 01010000            A  4943    	LD	BC,1
000F1F C5                  A  4944    	PUSH	BC
000F20 01F10000            A  4945    	LD	BC,241
000F24 C5                  A  4946    	PUSH	BC
000F25 CD 4E 1F 00         A  4947    	CALL	_writeReg
000F29 C1                  A  4948    	POP	BC
000F2A C1                  A  4949    	POP	BC
                           A  4950    ;  707			{
                           A  4951    ;  708				printf("Error event int RA8
                           A  4952    .LINE 708
                           A  4953    
000F2B 01F00000            A  4954    	LD	BC,240
000F2F C5                  A  4955    	PUSH	BC
000F30 CD 6B 1F 00         A  4956    	CALL	_readReg
000F34 C1                  A  4957    	POP	BC
000F35 DD77FF              A  4958    	LD	(IX+%FFFFFFFF),A
                           A  4959    ;  709				switch(t_status)
                           A  4960    .LINE 709
                           A  4961    
000F38 DD7EFF              A  4962    	LD	A,(IX+%FFFFFFFF)
000F3B CBC7                A  4963    	SET	%0,A
000F3D DD77FF              A  4964    	LD	(IX+%FFFFFFFF),A
                           A  4965    ;  710				{
                           A  4966    .LINE 710
                           A  4967    
000F40 DD4EFF              A  4968    	LD	C,(IX+%FFFFFFFF)
000F43 0600                A  4969    	LD	B,%0
000F45 C5                  A  4970    	PUSH	BC
000F46 01F00000            A  4971    	LD	BC,240
000F4A C5                  A  4972    	PUSH	BC
000F4B CD 4E 1F 00         A  4973    	CALL	_writeReg
000F4F C1                  A  4974    	POP	BC
000F50 C1                  A  4975    	POP	BC
                           A  4976    ;  711					case RZKERR_OBJECT_DELE
                           A  4977    .LINE 711
                           A  4978    
000F51 DD2706              A  4979    	LD	HL,(IX+%6)
000F54 4E                  A  4980    	LD	C,(HL)
000F55 0600                A  4981    	LD	B,%0
000F57 C5                  A  4982    	PUSH	BC
000F58 01020000            A  4983    	LD	BC,2
000F5C C5                  A  4984    	PUSH	BC
000F5D CD 4E 1F 00         A  4985    	CALL	_writeReg
000F61 C1                  A  4986    	POP	BC
000F62 C1                  A  4987    	POP	BC
                           A  4988    ;  712					case RZKERR_TIMEOUT: pr
                           A  4989    .LINE 712
                           A  4990    
000F63 01050000            A  4991    	LD	BC,5
000F67 C5                  A  4992    	PUSH	BC
000F68 01FFFFFF            A  4993    	LD	BC,16777215
000F6C C5                  A  4994    	PUSH	BC
000F6D 01010000            A  4995    	LD	BC,1
000F71 C5                  A  4996    	PUSH	BC
000F72 ED4B 08 00 00       A  4997    	LD	BC,(_ehRA8875int)
000F77 C5                  A  4998    	PUSH	BC
000F78 CD 00 00 00         A  4999    	CALL	_RZKPendOnEventGroup
000F7C C1                  A  5000    	POP	BC
000F7D C1                  A  5001    	POP	BC
000F7E C1                  A  5002    	POP	BC
000F7F C1                  A  5003    	POP	BC
000F80 DD2FFC              A  5004    	LD	(IX+%FFFFFFFC),HL
                           A  5005    ;  713					case RZKERR_CB_BUSY: pr
                           A  5006    .LINE 713
                           A  5007    
000F83 DD27FC              A  5008    	LD	HL,(IX+%FFFFFFFC)
000F86 CD 00 00 00         A  5009    	CALL	__icmpzero
000F8A 28 61               A  5010    	JR	Z,L_47
                           A  5011    ;  714					case RZKERR_INVALID_HAN
                           A  5012    ;  715					default: printf("Unknow
                           A  5013    .LINE 715
                           A  5014    
000F8C 01 D0 00 00         A  5015    	LD	BC,L__39
000F90 C5                  A  5016    	PUSH	BC
000F91 CD 00 00 00         A  5017    	CALL	_printf
000F95 C1                  A  5018    	POP	BC
                           A  5019    ;  716				}
                           A  5020    .LINE 716
                           A  5021    
000F96 DD27FC              A  5022    	LD	HL,(IX+%FFFFFFFC)
000F99 CD 00 00 00         A  5023    	CALL	__case8D
000F9D E9                  A  5024    	JP	(HL)
000F9E                     A  5025    L__40:
000F9E 0400                A  5026    	DW	4
000FA0 01                  A  5027    	DB	1
000FA1 D70F00              A  5028    	DW24	L_44	
                           A  5029    
000FA4 06                  A  5030    	DB	6
000FA5 B30F00              A  5031    	DW24	L_41	
                           A  5032    
000FA8 07                  A  5033    	DB	7
000FA9 BF0F00              A  5034    	DW24	L_42	
                           A  5035    
000FAC 10                  A  5036    	DB	16
000FAD CB0F00              A  5037    	DW24	L_43	
                           A  5038    
000FB0 E30F00              A  5039    	DW24	L_45	
                           A  5040    
                           A  5041    ;  717				
                           A  5042    ;  718			}
000FB3                     A  5043    L_41:
                           A  5044    .LINE 718
                           A  5045    
000FB3 01 E8 00 00         A  5046    	LD	BC,L__41
000FB7 C5                  A  5047    	PUSH	BC
000FB8 CD 00 00 00         A  5048    	CALL	_printf
000FBC C1                  A  5049    	POP	BC
000FBD 18 2E               A  5050    	JR	L_47
                           A  5051    ;  719			i_isFont=0;
000FBF                     A  5052    L_42:
                           A  5053    .LINE 719
                           A  5054    
000FBF 01 F9 00 00         A  5055    	LD	BC,L__42
000FC3 C5                  A  5056    	PUSH	BC
000FC4 CD 00 00 00         A  5057    	CALL	_printf
000FC8 C1                  A  5058    	POP	BC
000FC9 18 22               A  5059    	JR	L_47
                           A  5060    ;  720		}
000FCB                     A  5061    L_43:
                           A  5062    .LINE 720
                           A  5063    
000FCB 01 03 01 00         A  5064    	LD	BC,L__43
000FCF C5                  A  5065    	PUSH	BC
000FD0 CD 00 00 00         A  5066    	CALL	_printf
000FD4 C1                  A  5067    	POP	BC
000FD5 18 16               A  5068    	JR	L_47
                           A  5069    ;  721	}
000FD7                     A  5070    L_44:
                           A  5071    .LINE 721
                           A  5072    
000FD7 01 10 01 00         A  5073    	LD	BC,L__44
000FDB C5                  A  5074    	PUSH	BC
000FDC CD 00 00 00         A  5075    	CALL	_printf
000FE0 C1                  A  5076    	POP	BC
000FE1 18 0A               A  5077    	JR	L_47
                           A  5078    ;  722	/**************************************
000FE3                     A  5079    L_45:
                           A  5080    .LINE 722
                           A  5081    
000FE3 01 21 01 00         A  5082    	LD	BC,L__45
000FE7 C5                  A  5083    	PUSH	BC
000FE8 CD 00 00 00         A  5084    	CALL	_printf
000FEC C1                  A  5085    	POP	BC
                           A  5086    ;  723	/*!
                           A  5087    ;  724	      Fills the screen with the spefied
                           A  5088    ;  725	
000FED                     A  5089    L_47:
                           A  5090    .LINE 725
                           A  5091    
                           A  5092    ;  726	      @args color[in] The RGB565 color 
                           A  5093    .LINE 726
                           A  5094    
000FED AF                  A  5095    	XOR	A,A
000FEE 32 0E 00 00         A  5096    	LD	(_i_isFont),A
                           A  5097    ;  727	*/
                           A  5098    ;  728	/**************************************
000FF2                     A  5099    L_49:
                           A  5100    .LINE 728
                           A  5101    
000FF2 DDF9                A  5102    	LD	SP,IX
000FF4 DDE1                A  5103    	POP	IX
000FF6 C9                  A  5104    	RET	
                           A  5105    
                           A  5106    
                           A  5107    ;**************************** _textWrite ******
                           A  5108    ;Name                         Addr/Register   S
                           A  5109    ;_printf                             IMPORT  --
                           A  5110    ;_ehRA8875int                        STATIC    
                           A  5111    ;_RZKPendOnEventGroup                IMPORT  --
                           A  5112    ;_readReg                            IMPORT  --
                           A  5113    ;_writeReg                           IMPORT  --
                           A  5114    ;_i_isFont                           STATIC    
                           A  5115    ;_i_text_ptr                         STATIC    
                           A  5116    ;t_status                              IX-4    
                           A  5117    ;reg                                   IX-1    
                           A  5118    ;buf                                   IX+6    
                           A  5119    
                           A  5120    
                           A  5121    ; Stack Frame Size: 16 (bytes)
                           A  5122    ;       Spill Code: 0 (instruction)
                           A  5123    
                           A  5124    
                           A  5125    .ENDFUNC "textWrite",728,"_textWrite"
                           A  5126    	SEGMENT STRSECT
0000D0                     A  5127    L__39:
0000D0 4572726F 72206576   A  5128    	DB	"Error event int RA8875"
0000D8 656E7420 696E7420 
0000E0 52413838 3735 
0000E6 0A00                A  5129    	DB	10,0
0000E8                     A  5130    L__41:
0000E8 4F626A65 63742044   A  5131    	DB	"Object Deleted."
0000F0 656C6574 65642E 
0000F7 0A00                A  5132    	DB	10,0
0000F9                     A  5133    L__42:
0000F9 54696D65 6F75742E   A  5134    	DB	"Timeout."
000101 0A00                A  5135    	DB	10,0
000103                     A  5136    L__43:
000103 4F6A6563 74204255   A  5137    	DB	"Oject BUSY."
00010B 53592E 
00010E 0A00                A  5138    	DB	10,0
000110                     A  5139    L__44:
000110 496E7661 6C696420   A  5140    	DB	"Invalid HANDLE."
000118 48414E44 4C452E 
00011F 0A00                A  5141    	DB	10,0
000121                     A  5142    L__45:
000121 556E6B6E 6F776E20   A  5143    	DB	"Unknown Error!"
000129 4572726F 7221 
00012F 0A00                A  5144    	DB	10,0
                           A  5145    	SEGMENT CODE
                           A  5146    ;  729	
                           A  5147    ;  730	void fillScreen(UINT16 color)
                           A  5148    ;  731	{  
                           A  5149    ;  732	  rectHelper(0, 0, _width-1, _height-1,
                           A  5150    ;  733	}
                           A  5151    ;  734	/**************************************
                           A  5152    ;  735	/*!
                           A  5153    ;  736	      Helper function for higher level 
                           A  5154    ;  737	*/
                           A  5155    ;  738	/**************************************
000FF7                     A  5156    _fillScreen:
                           A  5157    .DEFINE "_fillScreen"
                           A  5158    
                           A  5159    .VALUE _fillScreen
                           A  5160    
                           A  5161    .CLASS 2
                           A  5162    
                           A  5163    .TYPE 65
                           A  5164    
                           A  5165    .ENDEF
                           A  5166    
                           A  5167    .BEGFUNC "fillScreen",738,"_fillScreen"
                           A  5168    
                           A  5169    .LINE 738
                           A  5170    
                           A  5171    .DEFINE "color"
                           A  5172    
                           A  5173    .CLASS 65
                           A  5174    
                           A  5175    .VALUE 6
                           A  5176    
                           A  5177    .TYPE 13
                           A  5178    
                           A  5179    .ENDEF
                           A  5180    
000FF7 DDE5                A  5181    	PUSH	IX
000FF9 DD210000 00         A  5182    	LD	IX,0
000FFE DD39                A  5183    	ADD	IX,SP
                           A  5184    ;  739	void rectHelper(INT16 x, INT16 y, INT16
                           A  5185    .LINE 739
                           A  5186    
001000 01010000            A  5187    	LD	BC,1
001004 C5                  A  5188    	PUSH	BC
001005 DD0706              A  5189    	LD	BC,(IX+%6)
001008 C5                  A  5190    	PUSH	BC
001009 ED4B 05 00 00       A  5191    	LD	BC,(__height)
00100E 0B                  A  5192    	DEC	BC
00100F C5                  A  5193    	PUSH	BC
001010 ED4B 03 00 00       A  5194    	LD	BC,(__width)
001015 0B                  A  5195    	DEC	BC
001016 C5                  A  5196    	PUSH	BC
001017 01000000            A  5197    	LD	BC,0
00101B C5                  A  5198    	PUSH	BC
00101C C5                  A  5199    	PUSH	BC
00101D CD 2C 10 00         A  5200    	CALL	_rectHelper
001021 C1                  A  5201    	POP	BC
001022 C1                  A  5202    	POP	BC
001023 C1                  A  5203    	POP	BC
001024 C1                  A  5204    	POP	BC
001025 C1                  A  5205    	POP	BC
001026 C1                  A  5206    	POP	BC
                           A  5207    ;  740	{
                           A  5208    .LINE 740
                           A  5209    
001027 DDF9                A  5210    	LD	SP,IX
001029 DDE1                A  5211    	POP	IX
00102B C9                  A  5212    	RET	
                           A  5213    
                           A  5214    
                           A  5215    ;**************************** _fillScreen *****
                           A  5216    ;Name                         Addr/Register   S
                           A  5217    ;__width                             STATIC    
                           A  5218    ;__height                            STATIC    
                           A  5219    ;_rectHelper                         IMPORT  --
                           A  5220    ;color                                 IX+6    
                           A  5221    
                           A  5222    
                           A  5223    ; Stack Frame Size: 9 (bytes)
                           A  5224    ;       Spill Code: 0 (instruction)
                           A  5225    
                           A  5226    
                           A  5227    .ENDFUNC "fillScreen",740,"_fillScreen"
                           A  5228    ;  741	  /* Set X */
                           A  5229    ;  742	  writeCommand(0x91);
                           A  5230    ;  743	  writeData(x);
                           A  5231    ;  744	  writeCommand(0x92);
                           A  5232    ;  745	  writeData(x >> 8);
                           A  5233    ;  746	  
                           A  5234    ;  747	  /* Set Y */
00102C                     A  5235    _rectHelper:
                           A  5236    .DEFINE "_rectHelper"
                           A  5237    
                           A  5238    .VALUE _rectHelper
                           A  5239    
                           A  5240    .CLASS 2
                           A  5241    
                           A  5242    .TYPE 65
                           A  5243    
                           A  5244    .ENDEF
                           A  5245    
                           A  5246    .BEGFUNC "rectHelper",747,"_rectHelper"
                           A  5247    
                           A  5248    .LINE 747
                           A  5249    
                           A  5250    .DEFINE "x"
                           A  5251    
                           A  5252    .CLASS 65
                           A  5253    
                           A  5254    .VALUE 6
                           A  5255    
                           A  5256    .TYPE 3
                           A  5257    
                           A  5258    .ENDEF
                           A  5259    
                           A  5260    .DEFINE "y"
                           A  5261    
                           A  5262    .CLASS 65
                           A  5263    
                           A  5264    .VALUE 9
                           A  5265    
                           A  5266    .TYPE 3
                           A  5267    
                           A  5268    .ENDEF
                           A  5269    
                           A  5270    .DEFINE "w"
                           A  5271    
                           A  5272    .CLASS 65
                           A  5273    
                           A  5274    .VALUE 12
                           A  5275    
                           A  5276    .TYPE 3
                           A  5277    
                           A  5278    .ENDEF
                           A  5279    
                           A  5280    .DEFINE "h"
                           A  5281    
                           A  5282    .CLASS 65
                           A  5283    
                           A  5284    .VALUE 15
                           A  5285    
                           A  5286    .TYPE 3
                           A  5287    
                           A  5288    .ENDEF
                           A  5289    
                           A  5290    .DEFINE "color"
                           A  5291    
                           A  5292    .CLASS 65
                           A  5293    
                           A  5294    .VALUE 18
                           A  5295    
                           A  5296    .TYPE 13
                           A  5297    
                           A  5298    .ENDEF
                           A  5299    
                           A  5300    .DEFINE "filled"
                           A  5301    
                           A  5302    .CLASS 65
                           A  5303    
                           A  5304    .VALUE 21
                           A  5305    
                           A  5306    .TYPE 12
                           A  5307    
                           A  5308    .ENDEF
                           A  5309    
00102C DDE5                A  5310    	PUSH	IX
00102E DD210000 00         A  5311    	LD	IX,0
001033 DD39                A  5312    	ADD	IX,SP
                           A  5313    ;  748	  writeCommand(0x93);
                           A  5314    ;  749	  writeData(y); 
                           A  5315    .LINE 749
                           A  5316    
001035 01910000            A  5317    	LD	BC,145
001039 C5                  A  5318    	PUSH	BC
00103A CD 76 1E 00         A  5319    	CALL	_writeCommand
00103E C1                  A  5320    	POP	BC
                           A  5321    ;  750	  writeCommand(0x94);	   
                           A  5322    .LINE 750
                           A  5323    
00103F DD4E06              A  5324    	LD	C,(IX+%6)
001042 0600                A  5325    	LD	B,%0
001044 C5                  A  5326    	PUSH	BC
001045 CD 8B 1E 00         A  5327    	CALL	_writeData
001049 C1                  A  5328    	POP	BC
                           A  5329    ;  751	  writeData(y >> 8);
                           A  5330    .LINE 751
                           A  5331    
00104A 01920000            A  5332    	LD	BC,146
00104E C5                  A  5333    	PUSH	BC
00104F CD 76 1E 00         A  5334    	CALL	_writeCommand
001053 C1                  A  5335    	POP	BC
                           A  5336    ;  752	  
                           A  5337    .LINE 752
                           A  5338    
001054 DD0706              A  5339    	LD	BC,(IX+%6)
001057 CD 00 00 00         A  5340    	CALL	__stoi
00105B 3E08                A  5341    	LD	A,%8
00105D CD 00 00 00         A  5342    	CALL	__ishrs_b
001061 4D                  A  5343    	LD	C,L
001062 0600                A  5344    	LD	B,%0
001064 C5                  A  5345    	PUSH	BC
001065 CD 8B 1E 00         A  5346    	CALL	_writeData
001069 C1                  A  5347    	POP	BC
                           A  5348    ;  753	  /* Set X1 */
                           A  5349    ;  754	  writeCommand(0x95);
                           A  5350    ;  755	  writeData(x+w);
                           A  5351    .LINE 755
                           A  5352    
00106A 01930000            A  5353    	LD	BC,147
00106E C5                  A  5354    	PUSH	BC
00106F CD 76 1E 00         A  5355    	CALL	_writeCommand
001073 C1                  A  5356    	POP	BC
                           A  5357    ;  756	  writeCommand(0x96);
                           A  5358    .LINE 756
                           A  5359    
001074 DD4E09              A  5360    	LD	C,(IX+%9)
001077 0600                A  5361    	LD	B,%0
001079 C5                  A  5362    	PUSH	BC
00107A CD 8B 1E 00         A  5363    	CALL	_writeData
00107E C1                  A  5364    	POP	BC
                           A  5365    ;  757	  writeData((x+w) >> 8);
                           A  5366    .LINE 757
                           A  5367    
00107F 01940000            A  5368    	LD	BC,148
001083 C5                  A  5369    	PUSH	BC
001084 CD 76 1E 00         A  5370    	CALL	_writeCommand
001088 C1                  A  5371    	POP	BC
                           A  5372    ;  758	  
                           A  5373    .LINE 758
                           A  5374    
001089 DD0709              A  5375    	LD	BC,(IX+%9)
00108C CD 00 00 00         A  5376    	CALL	__stoi
001090 3E08                A  5377    	LD	A,%8
001092 CD 00 00 00         A  5378    	CALL	__ishrs_b
001096 4D                  A  5379    	LD	C,L
001097 0600                A  5380    	LD	B,%0
001099 C5                  A  5381    	PUSH	BC
00109A CD 8B 1E 00         A  5382    	CALL	_writeData
00109E C1                  A  5383    	POP	BC
                           A  5384    ;  759	  /* Set Y1 */
                           A  5385    ;  760	  writeCommand(0x97);
                           A  5386    ;  761	  writeData(y+h); 
                           A  5387    .LINE 761
                           A  5388    
00109F 01950000            A  5389    	LD	BC,149
0010A3 C5                  A  5390    	PUSH	BC
0010A4 CD 76 1E 00         A  5391    	CALL	_writeCommand
0010A8 C1                  A  5392    	POP	BC
                           A  5393    ;  762	  writeCommand(0x98);
                           A  5394    .LINE 762
                           A  5395    
0010A9 DD460C              A  5396    	LD	B,(IX+%C)
0010AC DD7E06              A  5397    	LD	A,(IX+%6)
0010AF 80                  A  5398    	ADD	A,B
0010B0 4F                  A  5399    	LD	C,A
0010B1 0600                A  5400    	LD	B,%0
0010B3 C5                  A  5401    	PUSH	BC
0010B4 CD 8B 1E 00         A  5402    	CALL	_writeData
0010B8 C1                  A  5403    	POP	BC
                           A  5404    ;  763	  writeData((y+h) >> 8);
                           A  5405    .LINE 763
                           A  5406    
0010B9 01960000            A  5407    	LD	BC,150
0010BD C5                  A  5408    	PUSH	BC
0010BE CD 76 1E 00         A  5409    	CALL	_writeCommand
0010C2 C1                  A  5410    	POP	BC
                           A  5411    ;  764	
                           A  5412    .LINE 764
                           A  5413    
0010C3 DD0706              A  5414    	LD	BC,(IX+%6)
0010C6 CD 00 00 00         A  5415    	CALL	__stoi
0010CA E5D1                A  5416    	LD	DE,HL
0010CC DD070C              A  5417    	LD	BC,(IX+%C)
0010CF CD 00 00 00         A  5418    	CALL	__stoi
0010D3 19                  A  5419    	ADD	HL,DE
0010D4 3E08                A  5420    	LD	A,%8
0010D6 CD 00 00 00         A  5421    	CALL	__ishrs_b
0010DA 4D                  A  5422    	LD	C,L
0010DB 0600                A  5423    	LD	B,%0
0010DD C5                  A  5424    	PUSH	BC
0010DE CD 8B 1E 00         A  5425    	CALL	_writeData
0010E2 C1                  A  5426    	POP	BC
                           A  5427    ;  765	  /* Set Color */
                           A  5428    ;  766	  writeCommand(0x63);
                           A  5429    ;  767	  writeData((color & 0xf800) >> 11);
                           A  5430    .LINE 767
                           A  5431    
0010E3 01970000            A  5432    	LD	BC,151
0010E7 C5                  A  5433    	PUSH	BC
0010E8 CD 76 1E 00         A  5434    	CALL	_writeCommand
0010EC C1                  A  5435    	POP	BC
                           A  5436    ;  768	  writeCommand(0x64);
                           A  5437    .LINE 768
                           A  5438    
0010ED DD460F              A  5439    	LD	B,(IX+%F)
0010F0 DD7E09              A  5440    	LD	A,(IX+%9)
0010F3 80                  A  5441    	ADD	A,B
0010F4 4F                  A  5442    	LD	C,A
0010F5 0600                A  5443    	LD	B,%0
0010F7 C5                  A  5444    	PUSH	BC
0010F8 CD 8B 1E 00         A  5445    	CALL	_writeData
0010FC C1                  A  5446    	POP	BC
                           A  5447    ;  769	  writeData((color & 0x07e0) >> 5);
                           A  5448    .LINE 769
                           A  5449    
0010FD 01980000            A  5450    	LD	BC,152
001101 C5                  A  5451    	PUSH	BC
001102 CD 76 1E 00         A  5452    	CALL	_writeCommand
001106 C1                  A  5453    	POP	BC
                           A  5454    ;  770	  writeCommand(0x65);
                           A  5455    .LINE 770
                           A  5456    
001107 DD0709              A  5457    	LD	BC,(IX+%9)
00110A CD 00 00 00         A  5458    	CALL	__stoi
00110E E5D1                A  5459    	LD	DE,HL
001110 DD070F              A  5460    	LD	BC,(IX+%F)
001113 CD 00 00 00         A  5461    	CALL	__stoi
001117 19                  A  5462    	ADD	HL,DE
001118 3E08                A  5463    	LD	A,%8
00111A CD 00 00 00         A  5464    	CALL	__ishrs_b
00111E 4D                  A  5465    	LD	C,L
00111F 0600                A  5466    	LD	B,%0
001121 C5                  A  5467    	PUSH	BC
001122 CD 8B 1E 00         A  5468    	CALL	_writeData
001126 C1                  A  5469    	POP	BC
                           A  5470    ;  771	  writeData((color & 0x001f));
                           A  5471    ;  772	
                           A  5472    ;  773	  /* Draw! */
                           A  5473    .LINE 773
                           A  5474    
001127 01630000            A  5475    	LD	BC,99
00112B C5                  A  5476    	PUSH	BC
00112C CD 76 1E 00         A  5477    	CALL	_writeCommand
001130 C1                  A  5478    	POP	BC
                           A  5479    ;  774	  writeCommand(RA8875_DCR);
                           A  5480    .LINE 774
                           A  5481    
001131 DD2712              A  5482    	LD	HL,(IX+%12)
001134 3E0B                A  5483    	LD	A,%B
001136 CD 00 00 00         A  5484    	CALL	__sshru_b
00113A E5C1                A  5485    	LD	BC,HL
00113C CD 00 00 00         A  5486    	CALL	__stoiu
001140 7D                  A  5487    	LD	A,L
001141 E61F                A  5488    	AND	A,%1F
001143 6F                  A  5489    	LD	L,A
001144 4D                  A  5490    	LD	C,L
001145 0600                A  5491    	LD	B,%0
001147 C5                  A  5492    	PUSH	BC
001148 CD 8B 1E 00         A  5493    	CALL	_writeData
00114C C1                  A  5494    	POP	BC
                           A  5495    ;  775	  if (filled)
                           A  5496    .LINE 775
                           A  5497    
00114D 01640000            A  5498    	LD	BC,100
001151 C5                  A  5499    	PUSH	BC
001152 CD 76 1E 00         A  5500    	CALL	_writeCommand
001156 C1                  A  5501    	POP	BC
                           A  5502    ;  776	  {
                           A  5503    .LINE 776
                           A  5504    
001157 DD2712              A  5505    	LD	HL,(IX+%12)
00115A 3E05                A  5506    	LD	A,%5
00115C CD 00 00 00         A  5507    	CALL	__sshru_b
001160 E5C1                A  5508    	LD	BC,HL
001162 CD 00 00 00         A  5509    	CALL	__stoiu
001166 7D                  A  5510    	LD	A,L
001167 E63F                A  5511    	AND	A,%3F
001169 6F                  A  5512    	LD	L,A
00116A 4D                  A  5513    	LD	C,L
00116B 0600                A  5514    	LD	B,%0
00116D C5                  A  5515    	PUSH	BC
00116E CD 8B 1E 00         A  5516    	CALL	_writeData
001172 C1                  A  5517    	POP	BC
                           A  5518    ;  777	    writeData(0xB0);
                           A  5519    .LINE 777
                           A  5520    
001173 01650000            A  5521    	LD	BC,101
001177 C5                  A  5522    	PUSH	BC
001178 CD 76 1E 00         A  5523    	CALL	_writeCommand
00117C C1                  A  5524    	POP	BC
                           A  5525    ;  778	  }
                           A  5526    .LINE 778
                           A  5527    
00117D DD7E12              A  5528    	LD	A,(IX+%12)
001180 E61F                A  5529    	AND	A,%1F
001182 4F                  A  5530    	LD	C,A
001183 0600                A  5531    	LD	B,%0
001185 C5                  A  5532    	PUSH	BC
001186 CD 8B 1E 00         A  5533    	CALL	_writeData
00118A C1                  A  5534    	POP	BC
                           A  5535    ;  779	  else
                           A  5536    ;  780	  {
                           A  5537    ;  781	    writeData(0x90);
                           A  5538    .LINE 781
                           A  5539    
00118B 01900000            A  5540    	LD	BC,144
00118F C5                  A  5541    	PUSH	BC
001190 CD 76 1E 00         A  5542    	CALL	_writeCommand
001194 C1                  A  5543    	POP	BC
                           A  5544    ;  782	  }
                           A  5545    .LINE 782
                           A  5546    
001195 DD7E15              A  5547    	LD	A,(IX+%15)
001198 B7                  A  5548    	OR	A,A
001199 28 0C               A  5549    	JR	Z,L_52
                           A  5550    ;  783	  
                           A  5551    ;  784	  /* Wait for the command to finish */
                           A  5552    .LINE 784
                           A  5553    
00119B 01B00000            A  5554    	LD	BC,176
00119F C5                  A  5555    	PUSH	BC
0011A0 CD 8B 1E 00         A  5556    	CALL	_writeData
0011A4 C1                  A  5557    	POP	BC
                           A  5558    ;  785	  while(waitPoll(RA8875_DCR, RA8875_DCR
                           A  5559    ;  786	  {
                           A  5560    .LINE 786
                           A  5561    
0011A5 18 0A               A  5562    	JR	L_55
0011A7                     A  5563    L_52:
                           A  5564    ;  787		  RZKSuspendThread(ghRA88775,1);
                           A  5565    ;  788	  }
                           A  5566    .LINE 788
                           A  5567    
0011A7 01900000            A  5568    	LD	BC,144
0011AB C5                  A  5569    	PUSH	BC
0011AC CD 8B 1E 00         A  5570    	CALL	_writeData
0011B0 C1                  A  5571    	POP	BC
                           A  5572    ;  789	}
0011B1                     A  5573    L_55:
                           A  5574    .LINE 789
                           A  5575    
                           A  5576    ;  790	/**************************************
                           A  5577    ;  791	/*!
                           A  5578    ;  792	      Helper function for higher level 
0011B1                     A  5579    L_53:
                           A  5580    .LINE 792
                           A  5581    
0011B1 01800000            A  5582    	LD	BC,128
0011B5 C5                  A  5583    	PUSH	BC
0011B6 01900000            A  5584    	LD	BC,144
0011BA C5                  A  5585    	PUSH	BC
0011BB CD A0 1E 00         A  5586    	CALL	_waitPoll
0011BF C1                  A  5587    	POP	BC
0011C0 C1                  A  5588    	POP	BC
0011C1 B7                  A  5589    	OR	A,A
0011C2 20 13               A  5590    	JR	NZ,L_56
                           A  5591    ;  793	*/
                           A  5592    ;  794	/**************************************
                           A  5593    .LINE 794
                           A  5594    
0011C4 01010000            A  5595    	LD	BC,1
0011C8 C5                  A  5596    	PUSH	BC
0011C9 ED4B 02 00 00       A  5597    	LD	BC,(_ghRA88775)
0011CE C5                  A  5598    	PUSH	BC
0011CF CD 00 00 00         A  5599    	CALL	_RZKSuspendThread
0011D3 C1                  A  5600    	POP	BC
0011D4 C1                  A  5601    	POP	BC
                           A  5602    ;  795	void rectCornerHelper(INT16 x, INT16 y,
                           A  5603    .LINE 795
                           A  5604    
0011D5 18 DA               A  5605    	JR	L_53
                           A  5606    ;  796	{
0011D7                     A  5607    L_56:
                           A  5608    .LINE 796
                           A  5609    
0011D7 DDF9                A  5610    	LD	SP,IX
0011D9 DDE1                A  5611    	POP	IX
0011DB C9                  A  5612    	RET	
                           A  5613    
                           A  5614    
                           A  5615    ;**************************** _rectHelper *****
                           A  5616    ;Name                         Addr/Register   S
                           A  5617    ;_ghRA88775                          STATIC    
                           A  5618    ;_RZKSuspendThread                   IMPORT  --
                           A  5619    ;_waitPoll                           IMPORT  --
                           A  5620    ;_writeData                          IMPORT  --
                           A  5621    ;_writeCommand                       IMPORT  --
                           A  5622    ;filled                               IX+21    
                           A  5623    ;color                                IX+18    
                           A  5624    ;h                                    IX+15    
                           A  5625    ;w                                    IX+12    
                           A  5626    ;y                                     IX+9    
                           A  5627    ;x                                     IX+6    
                           A  5628    
                           A  5629    
                           A  5630    ; Stack Frame Size: 24 (bytes)
                           A  5631    ;       Spill Code: 0 (instruction)
                           A  5632    
                           A  5633    
                           A  5634    .ENDFUNC "rectHelper",796,"_rectHelper"
                           A  5635    ;  797	  /* Set X */
                           A  5636    ;  798	  writeCommand(0x91);
                           A  5637    ;  799	  writeData(x);
                           A  5638    ;  800	  writeCommand(0x92);
                           A  5639    ;  801	  writeData(x >> 8);
                           A  5640    ;  802	  
                           A  5641    ;  803	  /* Set Y */
0011DC                     A  5642    _rectCornerHelper:
                           A  5643    .DEFINE "_rectCornerHelper"
                           A  5644    
                           A  5645    .VALUE _rectCornerHelper
                           A  5646    
                           A  5647    .CLASS 2
                           A  5648    
                           A  5649    .TYPE 65
                           A  5650    
                           A  5651    .ENDEF
                           A  5652    
                           A  5653    .BEGFUNC "rectCornerHelper",803,"_rectCornerHel
                           A  5654    
                           A  5655    .LINE 803
                           A  5656    
                           A  5657    .DEFINE "x"
                           A  5658    
                           A  5659    .CLASS 65
                           A  5660    
                           A  5661    .VALUE 6
                           A  5662    
                           A  5663    .TYPE 3
                           A  5664    
                           A  5665    .ENDEF
                           A  5666    
                           A  5667    .DEFINE "y"
                           A  5668    
                           A  5669    .CLASS 65
                           A  5670    
                           A  5671    .VALUE 9
                           A  5672    
                           A  5673    .TYPE 3
                           A  5674    
                           A  5675    .ENDEF
                           A  5676    
                           A  5677    .DEFINE "w"
                           A  5678    
                           A  5679    .CLASS 65
                           A  5680    
                           A  5681    .VALUE 12
                           A  5682    
                           A  5683    .TYPE 3
                           A  5684    
                           A  5685    .ENDEF
                           A  5686    
                           A  5687    .DEFINE "h"
                           A  5688    
                           A  5689    .CLASS 65
                           A  5690    
                           A  5691    .VALUE 15
                           A  5692    
                           A  5693    .TYPE 3
                           A  5694    
                           A  5695    .ENDEF
                           A  5696    
                           A  5697    .DEFINE "cir_x"
                           A  5698    
                           A  5699    .CLASS 65
                           A  5700    
                           A  5701    .VALUE 18
                           A  5702    
                           A  5703    .TYPE 13
                           A  5704    
                           A  5705    .ENDEF
                           A  5706    
                           A  5707    .DEFINE "cir_y"
                           A  5708    
                           A  5709    .CLASS 65
                           A  5710    
                           A  5711    .VALUE 21
                           A  5712    
                           A  5713    .TYPE 13
                           A  5714    
                           A  5715    .ENDEF
                           A  5716    
                           A  5717    .DEFINE "color"
                           A  5718    
                           A  5719    .CLASS 65
                           A  5720    
                           A  5721    .VALUE 24
                           A  5722    
                           A  5723    .TYPE 13
                           A  5724    
                           A  5725    .ENDEF
                           A  5726    
                           A  5727    .DEFINE "filled"
                           A  5728    
                           A  5729    .CLASS 65
                           A  5730    
                           A  5731    .VALUE 27
                           A  5732    
                           A  5733    .TYPE 12
                           A  5734    
                           A  5735    .ENDEF
                           A  5736    
0011DC DDE5                A  5737    	PUSH	IX
0011DE DD210000 00         A  5738    	LD	IX,0
0011E3 DD39                A  5739    	ADD	IX,SP
                           A  5740    ;  804	  writeCommand(0x93);
                           A  5741    ;  805	  writeData(y); 
                           A  5742    .LINE 805
                           A  5743    
0011E5 01910000            A  5744    	LD	BC,145
0011E9 C5                  A  5745    	PUSH	BC
0011EA CD 76 1E 00         A  5746    	CALL	_writeCommand
0011EE C1                  A  5747    	POP	BC
                           A  5748    ;  806	  writeCommand(0x94);	   
                           A  5749    .LINE 806
                           A  5750    
0011EF DD4E06              A  5751    	LD	C,(IX+%6)
0011F2 0600                A  5752    	LD	B,%0
0011F4 C5                  A  5753    	PUSH	BC
0011F5 CD 8B 1E 00         A  5754    	CALL	_writeData
0011F9 C1                  A  5755    	POP	BC
                           A  5756    ;  807	  writeData(y >> 8);
                           A  5757    .LINE 807
                           A  5758    
0011FA 01920000            A  5759    	LD	BC,146
0011FE C5                  A  5760    	PUSH	BC
0011FF CD 76 1E 00         A  5761    	CALL	_writeCommand
001203 C1                  A  5762    	POP	BC
                           A  5763    ;  808	  
                           A  5764    .LINE 808
                           A  5765    
001204 DD0706              A  5766    	LD	BC,(IX+%6)
001207 CD 00 00 00         A  5767    	CALL	__stoi
00120B 3E08                A  5768    	LD	A,%8
00120D CD 00 00 00         A  5769    	CALL	__ishrs_b
001211 4D                  A  5770    	LD	C,L
001212 0600                A  5771    	LD	B,%0
001214 C5                  A  5772    	PUSH	BC
001215 CD 8B 1E 00         A  5773    	CALL	_writeData
001219 C1                  A  5774    	POP	BC
                           A  5775    ;  809	  /* Set X1 */
                           A  5776    ;  810	  writeCommand(0x95);
                           A  5777    ;  811	  writeData(x+w);
                           A  5778    .LINE 811
                           A  5779    
00121A 01930000            A  5780    	LD	BC,147
00121E C5                  A  5781    	PUSH	BC
00121F CD 76 1E 00         A  5782    	CALL	_writeCommand
001223 C1                  A  5783    	POP	BC
                           A  5784    ;  812	  writeCommand(0x96);
                           A  5785    .LINE 812
                           A  5786    
001224 DD4E09              A  5787    	LD	C,(IX+%9)
001227 0600                A  5788    	LD	B,%0
001229 C5                  A  5789    	PUSH	BC
00122A CD 8B 1E 00         A  5790    	CALL	_writeData
00122E C1                  A  5791    	POP	BC
                           A  5792    ;  813	  writeData((x+w) >> 8);
                           A  5793    .LINE 813
                           A  5794    
00122F 01940000            A  5795    	LD	BC,148
001233 C5                  A  5796    	PUSH	BC
001234 CD 76 1E 00         A  5797    	CALL	_writeCommand
001238 C1                  A  5798    	POP	BC
                           A  5799    ;  814	  
                           A  5800    .LINE 814
                           A  5801    
001239 DD0709              A  5802    	LD	BC,(IX+%9)
00123C CD 00 00 00         A  5803    	CALL	__stoi
001240 3E08                A  5804    	LD	A,%8
001242 CD 00 00 00         A  5805    	CALL	__ishrs_b
001246 4D                  A  5806    	LD	C,L
001247 0600                A  5807    	LD	B,%0
001249 C5                  A  5808    	PUSH	BC
00124A CD 8B 1E 00         A  5809    	CALL	_writeData
00124E C1                  A  5810    	POP	BC
                           A  5811    ;  815	  /* Set Y1 */
                           A  5812    ;  816	  writeCommand(0x97);
                           A  5813    ;  817	  writeData(y+h); 
                           A  5814    .LINE 817
                           A  5815    
00124F 01950000            A  5816    	LD	BC,149
001253 C5                  A  5817    	PUSH	BC
001254 CD 76 1E 00         A  5818    	CALL	_writeCommand
001258 C1                  A  5819    	POP	BC
                           A  5820    ;  818	  writeCommand(0x98);
                           A  5821    .LINE 818
                           A  5822    
001259 DD460C              A  5823    	LD	B,(IX+%C)
00125C DD7E06              A  5824    	LD	A,(IX+%6)
00125F 80                  A  5825    	ADD	A,B
001260 4F                  A  5826    	LD	C,A
001261 0600                A  5827    	LD	B,%0
001263 C5                  A  5828    	PUSH	BC
001264 CD 8B 1E 00         A  5829    	CALL	_writeData
001268 C1                  A  5830    	POP	BC
                           A  5831    ;  819	  writeData((y+h) >> 8);
                           A  5832    .LINE 819
                           A  5833    
001269 01960000            A  5834    	LD	BC,150
00126D C5                  A  5835    	PUSH	BC
00126E CD 76 1E 00         A  5836    	CALL	_writeCommand
001272 C1                  A  5837    	POP	BC
                           A  5838    ;  820	
                           A  5839    .LINE 820
                           A  5840    
001273 DD0706              A  5841    	LD	BC,(IX+%6)
001276 CD 00 00 00         A  5842    	CALL	__stoi
00127A E5D1                A  5843    	LD	DE,HL
00127C DD070C              A  5844    	LD	BC,(IX+%C)
00127F CD 00 00 00         A  5845    	CALL	__stoi
001283 19                  A  5846    	ADD	HL,DE
001284 3E08                A  5847    	LD	A,%8
001286 CD 00 00 00         A  5848    	CALL	__ishrs_b
00128A 4D                  A  5849    	LD	C,L
00128B 0600                A  5850    	LD	B,%0
00128D C5                  A  5851    	PUSH	BC
00128E CD 8B 1E 00         A  5852    	CALL	_writeData
001292 C1                  A  5853    	POP	BC
                           A  5854    ;  821		/* Set Long and Short Axis */
                           A  5855    ;  822	  writeCommand(0xA1);
                           A  5856    ;  823	  writeData(cir_x);
                           A  5857    .LINE 823
                           A  5858    
001293 01970000            A  5859    	LD	BC,151
001297 C5                  A  5860    	PUSH	BC
001298 CD 76 1E 00         A  5861    	CALL	_writeCommand
00129C C1                  A  5862    	POP	BC
                           A  5863    ;  824	  writeCommand(0xA2);
                           A  5864    .LINE 824
                           A  5865    
00129D DD460F              A  5866    	LD	B,(IX+%F)
0012A0 DD7E09              A  5867    	LD	A,(IX+%9)
0012A3 80                  A  5868    	ADD	A,B
0012A4 4F                  A  5869    	LD	C,A
0012A5 0600                A  5870    	LD	B,%0
0012A7 C5                  A  5871    	PUSH	BC
0012A8 CD 8B 1E 00         A  5872    	CALL	_writeData
0012AC C1                  A  5873    	POP	BC
                           A  5874    ;  825	  writeData(cir_x >> 8);
                           A  5875    .LINE 825
                           A  5876    
0012AD 01980000            A  5877    	LD	BC,152
0012B1 C5                  A  5878    	PUSH	BC
0012B2 CD 76 1E 00         A  5879    	CALL	_writeCommand
0012B6 C1                  A  5880    	POP	BC
                           A  5881    ;  826	  writeCommand(0xA3);
                           A  5882    .LINE 826
                           A  5883    
0012B7 DD0709              A  5884    	LD	BC,(IX+%9)
0012BA CD 00 00 00         A  5885    	CALL	__stoi
0012BE E5D1                A  5886    	LD	DE,HL
0012C0 DD070F              A  5887    	LD	BC,(IX+%F)
0012C3 CD 00 00 00         A  5888    	CALL	__stoi
0012C7 19                  A  5889    	ADD	HL,DE
0012C8 3E08                A  5890    	LD	A,%8
0012CA CD 00 00 00         A  5891    	CALL	__ishrs_b
0012CE 4D                  A  5892    	LD	C,L
0012CF 0600                A  5893    	LD	B,%0
0012D1 C5                  A  5894    	PUSH	BC
0012D2 CD 8B 1E 00         A  5895    	CALL	_writeData
0012D6 C1                  A  5896    	POP	BC
                           A  5897    ;  827	  writeData(cir_y); 
                           A  5898    ;  828	  writeCommand(0xA4);
                           A  5899    ;  829	  writeData(cir_y >> 8);
                           A  5900    .LINE 829
                           A  5901    
0012D7 01A10000            A  5902    	LD	BC,161
0012DB C5                  A  5903    	PUSH	BC
0012DC CD 76 1E 00         A  5904    	CALL	_writeCommand
0012E0 C1                  A  5905    	POP	BC
                           A  5906    ;  830		
                           A  5907    .LINE 830
                           A  5908    
0012E1 DD4E12              A  5909    	LD	C,(IX+%12)
0012E4 0600                A  5910    	LD	B,%0
0012E6 C5                  A  5911    	PUSH	BC
0012E7 CD 8B 1E 00         A  5912    	CALL	_writeData
0012EB C1                  A  5913    	POP	BC
                           A  5914    ;  831	  /* Set Color */
                           A  5915    .LINE 831
                           A  5916    
0012EC 01A20000            A  5917    	LD	BC,162
0012F0 C5                  A  5918    	PUSH	BC
0012F1 CD 76 1E 00         A  5919    	CALL	_writeCommand
0012F5 C1                  A  5920    	POP	BC
                           A  5921    ;  832	  writeCommand(0x63);
                           A  5922    .LINE 832
                           A  5923    
0012F6 DD0712              A  5924    	LD	BC,(IX+%12)
0012F9 CD 00 00 00         A  5925    	CALL	__stoiu
0012FD 3E08                A  5926    	LD	A,%8
0012FF CD 00 00 00         A  5927    	CALL	__ishrs_b
001303 4D                  A  5928    	LD	C,L
001304 0600                A  5929    	LD	B,%0
001306 C5                  A  5930    	PUSH	BC
001307 CD 8B 1E 00         A  5931    	CALL	_writeData
00130B C1                  A  5932    	POP	BC
                           A  5933    ;  833	  writeData((color & 0xf800) >> 11);
                           A  5934    .LINE 833
                           A  5935    
00130C 01A30000            A  5936    	LD	BC,163
001310 C5                  A  5937    	PUSH	BC
001311 CD 76 1E 00         A  5938    	CALL	_writeCommand
001315 C1                  A  5939    	POP	BC
                           A  5940    ;  834	  writeCommand(0x64);
                           A  5941    .LINE 834
                           A  5942    
001316 DD4E15              A  5943    	LD	C,(IX+%15)
001319 0600                A  5944    	LD	B,%0
00131B C5                  A  5945    	PUSH	BC
00131C CD 8B 1E 00         A  5946    	CALL	_writeData
001320 C1                  A  5947    	POP	BC
                           A  5948    ;  835	  writeData((color & 0x07e0) >> 5);
                           A  5949    .LINE 835
                           A  5950    
001321 01A40000            A  5951    	LD	BC,164
001325 C5                  A  5952    	PUSH	BC
001326 CD 76 1E 00         A  5953    	CALL	_writeCommand
00132A C1                  A  5954    	POP	BC
                           A  5955    ;  836	  writeCommand(0x65);
                           A  5956    .LINE 836
                           A  5957    
00132B DD0715              A  5958    	LD	BC,(IX+%15)
00132E CD 00 00 00         A  5959    	CALL	__stoiu
001332 3E08                A  5960    	LD	A,%8
001334 CD 00 00 00         A  5961    	CALL	__ishrs_b
001338 4D                  A  5962    	LD	C,L
001339 0600                A  5963    	LD	B,%0
00133B C5                  A  5964    	PUSH	BC
00133C CD 8B 1E 00         A  5965    	CALL	_writeData
001340 C1                  A  5966    	POP	BC
                           A  5967    ;  837	  writeData((color & 0x001f));
                           A  5968    ;  838	
                           A  5969    ;  839	  /* Draw! */
                           A  5970    .LINE 839
                           A  5971    
001341 01630000            A  5972    	LD	BC,99
001345 C5                  A  5973    	PUSH	BC
001346 CD 76 1E 00         A  5974    	CALL	_writeCommand
00134A C1                  A  5975    	POP	BC
                           A  5976    ;  840	  writeCommand(0xA0);
                           A  5977    .LINE 840
                           A  5978    
00134B DD2718              A  5979    	LD	HL,(IX+%18)
00134E 3E0B                A  5980    	LD	A,%B
001350 CD 00 00 00         A  5981    	CALL	__sshru_b
001354 E5C1                A  5982    	LD	BC,HL
001356 CD 00 00 00         A  5983    	CALL	__stoiu
00135A 7D                  A  5984    	LD	A,L
00135B E61F                A  5985    	AND	A,%1F
00135D 6F                  A  5986    	LD	L,A
00135E 4D                  A  5987    	LD	C,L
00135F 0600                A  5988    	LD	B,%0
001361 C5                  A  5989    	PUSH	BC
001362 CD 8B 1E 00         A  5990    	CALL	_writeData
001366 C1                  A  5991    	POP	BC
                           A  5992    ;  841	  if (filled)
                           A  5993    .LINE 841
                           A  5994    
001367 01640000            A  5995    	LD	BC,100
00136B C5                  A  5996    	PUSH	BC
00136C CD 76 1E 00         A  5997    	CALL	_writeCommand
001370 C1                  A  5998    	POP	BC
                           A  5999    ;  842	  {
                           A  6000    .LINE 842
                           A  6001    
001371 DD2718              A  6002    	LD	HL,(IX+%18)
001374 3E05                A  6003    	LD	A,%5
001376 CD 00 00 00         A  6004    	CALL	__sshru_b
00137A E5C1                A  6005    	LD	BC,HL
00137C CD 00 00 00         A  6006    	CALL	__stoiu
001380 7D                  A  6007    	LD	A,L
001381 E63F                A  6008    	AND	A,%3F
001383 6F                  A  6009    	LD	L,A
001384 4D                  A  6010    	LD	C,L
001385 0600                A  6011    	LD	B,%0
001387 C5                  A  6012    	PUSH	BC
001388 CD 8B 1E 00         A  6013    	CALL	_writeData
00138C C1                  A  6014    	POP	BC
                           A  6015    ;  843	    writeData(0xE0);
                           A  6016    .LINE 843
                           A  6017    
00138D 01650000            A  6018    	LD	BC,101
001391 C5                  A  6019    	PUSH	BC
001392 CD 76 1E 00         A  6020    	CALL	_writeCommand
001396 C1                  A  6021    	POP	BC
                           A  6022    ;  844	  }
                           A  6023    .LINE 844
                           A  6024    
001397 DD7E18              A  6025    	LD	A,(IX+%18)
00139A E61F                A  6026    	AND	A,%1F
00139C 4F                  A  6027    	LD	C,A
00139D 0600                A  6028    	LD	B,%0
00139F C5                  A  6029    	PUSH	BC
0013A0 CD 8B 1E 00         A  6030    	CALL	_writeData
0013A4 C1                  A  6031    	POP	BC
                           A  6032    ;  845	  else
                           A  6033    ;  846	  {
                           A  6034    ;  847	    writeData(0xA0);
                           A  6035    .LINE 847
                           A  6036    
0013A5 01A00000            A  6037    	LD	BC,160
0013A9 C5                  A  6038    	PUSH	BC
0013AA CD 76 1E 00         A  6039    	CALL	_writeCommand
0013AE C1                  A  6040    	POP	BC
                           A  6041    ;  848	  }
                           A  6042    .LINE 848
                           A  6043    
0013AF DD7E1B              A  6044    	LD	A,(IX+%1B)
0013B2 B7                  A  6045    	OR	A,A
0013B3 28 0C               A  6046    	JR	Z,L_58
                           A  6047    ;  849	  
                           A  6048    ;  850	  /* Wait for the command to finish */
                           A  6049    .LINE 850
                           A  6050    
0013B5 01E00000            A  6051    	LD	BC,224
0013B9 C5                  A  6052    	PUSH	BC
0013BA CD 8B 1E 00         A  6053    	CALL	_writeData
0013BE C1                  A  6054    	POP	BC
                           A  6055    ;  851	  while(waitPoll(RA8875_ELLIPSE, RA8875
                           A  6056    ;  852	  {
                           A  6057    .LINE 852
                           A  6058    
0013BF 18 0A               A  6059    	JR	L_61
0013C1                     A  6060    L_58:
                           A  6061    ;  853		  RZKSuspendThread(ghRA88775,1);
                           A  6062    ;  854	  }
                           A  6063    .LINE 854
                           A  6064    
0013C1 01A00000            A  6065    	LD	BC,160
0013C5 C5                  A  6066    	PUSH	BC
0013C6 CD 8B 1E 00         A  6067    	CALL	_writeData
0013CA C1                  A  6068    	POP	BC
                           A  6069    ;  855	}
0013CB                     A  6070    L_61:
                           A  6071    .LINE 855
                           A  6072    
                           A  6073    ;  856	/**************************************
                           A  6074    ;  857	/*!
                           A  6075    ;  858	      Helper function for higher level 
0013CB                     A  6076    L_59:
                           A  6077    .LINE 858
                           A  6078    
0013CB 01800000            A  6079    	LD	BC,128
0013CF C5                  A  6080    	PUSH	BC
0013D0 01A00000            A  6081    	LD	BC,160
0013D4 C5                  A  6082    	PUSH	BC
0013D5 CD A0 1E 00         A  6083    	CALL	_waitPoll
0013D9 C1                  A  6084    	POP	BC
0013DA C1                  A  6085    	POP	BC
0013DB B7                  A  6086    	OR	A,A
0013DC 20 13               A  6087    	JR	NZ,L_62
                           A  6088    ;  859	*/
                           A  6089    ;  860	/**************************************
                           A  6090    .LINE 860
                           A  6091    
0013DE 01010000            A  6092    	LD	BC,1
0013E2 C5                  A  6093    	PUSH	BC
0013E3 ED4B 02 00 00       A  6094    	LD	BC,(_ghRA88775)
0013E8 C5                  A  6095    	PUSH	BC
0013E9 CD 00 00 00         A  6096    	CALL	_RZKSuspendThread
0013ED C1                  A  6097    	POP	BC
0013EE C1                  A  6098    	POP	BC
                           A  6099    ;  861	void circleHelper(INT16 x0, INT16 y0, I
                           A  6100    .LINE 861
                           A  6101    
0013EF 18 DA               A  6102    	JR	L_59
                           A  6103    ;  862	{
0013F1                     A  6104    L_62:
                           A  6105    .LINE 862
                           A  6106    
0013F1 DDF9                A  6107    	LD	SP,IX
0013F3 DDE1                A  6108    	POP	IX
0013F5 C9                  A  6109    	RET	
                           A  6110    
                           A  6111    
                           A  6112    ;**************************** _rectCornerHelper
                           A  6113    ;Name                         Addr/Register   S
                           A  6114    ;_ghRA88775                          STATIC    
                           A  6115    ;_RZKSuspendThread                   IMPORT  --
                           A  6116    ;_waitPoll                           IMPORT  --
                           A  6117    ;_writeData                          IMPORT  --
                           A  6118    ;_writeCommand                       IMPORT  --
                           A  6119    ;filled                               IX+27    
                           A  6120    ;color                                IX+24    
                           A  6121    ;cir_y                                IX+21    
                           A  6122    ;cir_x                                IX+18    
                           A  6123    ;h                                    IX+15    
                           A  6124    ;w                                    IX+12    
                           A  6125    ;y                                     IX+9    
                           A  6126    ;x                                     IX+6    
                           A  6127    
                           A  6128    
                           A  6129    ; Stack Frame Size: 30 (bytes)
                           A  6130    ;       Spill Code: 0 (instruction)
                           A  6131    
                           A  6132    
                           A  6133    .ENDFUNC "rectCornerHelper",862,"_rectCornerHel
                           A  6134    ;  863	  /* Set X */
                           A  6135    ;  864	  writeCommand(0x99);
                           A  6136    ;  865	  writeData(x0);
                           A  6137    ;  866	  writeCommand(0x9a);
                           A  6138    ;  867	  writeData(x0 >> 8);
                           A  6139    ;  868	  
                           A  6140    ;  869	  /* Set Y */
0013F6                     A  6141    _circleHelper:
                           A  6142    .DEFINE "_circleHelper"
                           A  6143    
                           A  6144    .VALUE _circleHelper
                           A  6145    
                           A  6146    .CLASS 2
                           A  6147    
                           A  6148    .TYPE 65
                           A  6149    
                           A  6150    .ENDEF
                           A  6151    
                           A  6152    .BEGFUNC "circleHelper",869,"_circleHelper"
                           A  6153    
                           A  6154    .LINE 869
                           A  6155    
                           A  6156    .DEFINE "x0"
                           A  6157    
                           A  6158    .CLASS 65
                           A  6159    
                           A  6160    .VALUE 6
                           A  6161    
                           A  6162    .TYPE 3
                           A  6163    
                           A  6164    .ENDEF
                           A  6165    
                           A  6166    .DEFINE "y0"
                           A  6167    
                           A  6168    .CLASS 65
                           A  6169    
                           A  6170    .VALUE 9
                           A  6171    
                           A  6172    .TYPE 3
                           A  6173    
                           A  6174    .ENDEF
                           A  6175    
                           A  6176    .DEFINE "r"
                           A  6177    
                           A  6178    .CLASS 65
                           A  6179    
                           A  6180    .VALUE 12
                           A  6181    
                           A  6182    .TYPE 3
                           A  6183    
                           A  6184    .ENDEF
                           A  6185    
                           A  6186    .DEFINE "color"
                           A  6187    
                           A  6188    .CLASS 65
                           A  6189    
                           A  6190    .VALUE 15
                           A  6191    
                           A  6192    .TYPE 13
                           A  6193    
                           A  6194    .ENDEF
                           A  6195    
                           A  6196    .DEFINE "filled"
                           A  6197    
                           A  6198    .CLASS 65
                           A  6199    
                           A  6200    .VALUE 18
                           A  6201    
                           A  6202    .TYPE 12
                           A  6203    
                           A  6204    .ENDEF
                           A  6205    
0013F6 DDE5                A  6206    	PUSH	IX
0013F8 DD210000 00         A  6207    	LD	IX,0
0013FD DD39                A  6208    	ADD	IX,SP
                           A  6209    ;  870	  writeCommand(0x9b);
                           A  6210    ;  871	  writeData(y0); 
                           A  6211    .LINE 871
                           A  6212    
0013FF 01990000            A  6213    	LD	BC,153
001403 C5                  A  6214    	PUSH	BC
001404 CD 76 1E 00         A  6215    	CALL	_writeCommand
001408 C1                  A  6216    	POP	BC
                           A  6217    ;  872	  writeCommand(0x9c);	   
                           A  6218    .LINE 872
                           A  6219    
001409 DD4E06              A  6220    	LD	C,(IX+%6)
00140C 0600                A  6221    	LD	B,%0
00140E C5                  A  6222    	PUSH	BC
00140F CD 8B 1E 00         A  6223    	CALL	_writeData
001413 C1                  A  6224    	POP	BC
                           A  6225    ;  873	  writeData(y0 >> 8);
                           A  6226    .LINE 873
                           A  6227    
001414 019A0000            A  6228    	LD	BC,154
001418 C5                  A  6229    	PUSH	BC
001419 CD 76 1E 00         A  6230    	CALL	_writeCommand
00141D C1                  A  6231    	POP	BC
                           A  6232    ;  874	  
                           A  6233    .LINE 874
                           A  6234    
00141E DD0706              A  6235    	LD	BC,(IX+%6)
001421 CD 00 00 00         A  6236    	CALL	__stoi
001425 3E08                A  6237    	LD	A,%8
001427 CD 00 00 00         A  6238    	CALL	__ishrs_b
00142B 4D                  A  6239    	LD	C,L
00142C 0600                A  6240    	LD	B,%0
00142E C5                  A  6241    	PUSH	BC
00142F CD 8B 1E 00         A  6242    	CALL	_writeData
001433 C1                  A  6243    	POP	BC
                           A  6244    ;  875	  /* Set Radius */
                           A  6245    ;  876	  writeCommand(0x9d);
                           A  6246    ;  877	  writeData(r);  
                           A  6247    .LINE 877
                           A  6248    
001434 019B0000            A  6249    	LD	BC,155
001438 C5                  A  6250    	PUSH	BC
001439 CD 76 1E 00         A  6251    	CALL	_writeCommand
00143D C1                  A  6252    	POP	BC
                           A  6253    ;  878	  
                           A  6254    .LINE 878
                           A  6255    
00143E DD4E09              A  6256    	LD	C,(IX+%9)
001441 0600                A  6257    	LD	B,%0
001443 C5                  A  6258    	PUSH	BC
001444 CD 8B 1E 00         A  6259    	CALL	_writeData
001448 C1                  A  6260    	POP	BC
                           A  6261    ;  879	  /* Set Color */
                           A  6262    .LINE 879
                           A  6263    
001449 019C0000            A  6264    	LD	BC,156
00144D C5                  A  6265    	PUSH	BC
00144E CD 76 1E 00         A  6266    	CALL	_writeCommand
001452 C1                  A  6267    	POP	BC
                           A  6268    ;  880	  writeCommand(0x63);
                           A  6269    .LINE 880
                           A  6270    
001453 DD0709              A  6271    	LD	BC,(IX+%9)
001456 CD 00 00 00         A  6272    	CALL	__stoi
00145A 3E08                A  6273    	LD	A,%8
00145C CD 00 00 00         A  6274    	CALL	__ishrs_b
001460 4D                  A  6275    	LD	C,L
001461 0600                A  6276    	LD	B,%0
001463 C5                  A  6277    	PUSH	BC
001464 CD 8B 1E 00         A  6278    	CALL	_writeData
001468 C1                  A  6279    	POP	BC
                           A  6280    ;  881	  writeData((color & 0xf800) >> 11);
                           A  6281    ;  882	  writeCommand(0x64);
                           A  6282    ;  883	  writeData((color & 0x07e0) >> 5);
                           A  6283    .LINE 883
                           A  6284    
001469 019D0000            A  6285    	LD	BC,157
00146D C5                  A  6286    	PUSH	BC
00146E CD 76 1E 00         A  6287    	CALL	_writeCommand
001472 C1                  A  6288    	POP	BC
                           A  6289    ;  884	  writeCommand(0x65);
                           A  6290    .LINE 884
                           A  6291    
001473 DD4E0C              A  6292    	LD	C,(IX+%C)
001476 0600                A  6293    	LD	B,%0
001478 C5                  A  6294    	PUSH	BC
001479 CD 8B 1E 00         A  6295    	CALL	_writeData
00147D C1                  A  6296    	POP	BC
                           A  6297    ;  885	  writeData((color & 0x001f));
                           A  6298    ;  886	  
                           A  6299    ;  887	  /* Draw! */
                           A  6300    .LINE 887
                           A  6301    
00147E 01630000            A  6302    	LD	BC,99
001482 C5                  A  6303    	PUSH	BC
001483 CD 76 1E 00         A  6304    	CALL	_writeCommand
001487 C1                  A  6305    	POP	BC
                           A  6306    ;  888	  writeCommand(RA8875_DCR);
                           A  6307    .LINE 888
                           A  6308    
001488 DD270F              A  6309    	LD	HL,(IX+%F)
00148B 3E0B                A  6310    	LD	A,%B
00148D CD 00 00 00         A  6311    	CALL	__sshru_b
001491 E5C1                A  6312    	LD	BC,HL
001493 CD 00 00 00         A  6313    	CALL	__stoiu
001497 7D                  A  6314    	LD	A,L
001498 E61F                A  6315    	AND	A,%1F
00149A 6F                  A  6316    	LD	L,A
00149B 4D                  A  6317    	LD	C,L
00149C 0600                A  6318    	LD	B,%0
00149E C5                  A  6319    	PUSH	BC
00149F CD 8B 1E 00         A  6320    	CALL	_writeData
0014A3 C1                  A  6321    	POP	BC
                           A  6322    ;  889	  if (filled)
                           A  6323    .LINE 889
                           A  6324    
0014A4 01640000            A  6325    	LD	BC,100
0014A8 C5                  A  6326    	PUSH	BC
0014A9 CD 76 1E 00         A  6327    	CALL	_writeCommand
0014AD C1                  A  6328    	POP	BC
                           A  6329    ;  890	  {
                           A  6330    .LINE 890
                           A  6331    
0014AE DD270F              A  6332    	LD	HL,(IX+%F)
0014B1 3E05                A  6333    	LD	A,%5
0014B3 CD 00 00 00         A  6334    	CALL	__sshru_b
0014B7 E5C1                A  6335    	LD	BC,HL
0014B9 CD 00 00 00         A  6336    	CALL	__stoiu
0014BD 7D                  A  6337    	LD	A,L
0014BE E63F                A  6338    	AND	A,%3F
0014C0 6F                  A  6339    	LD	L,A
0014C1 4D                  A  6340    	LD	C,L
0014C2 0600                A  6341    	LD	B,%0
0014C4 C5                  A  6342    	PUSH	BC
0014C5 CD 8B 1E 00         A  6343    	CALL	_writeData
0014C9 C1                  A  6344    	POP	BC
                           A  6345    ;  891	    writeData(RA8875_DCR_CIRCLE_START |
                           A  6346    .LINE 891
                           A  6347    
0014CA 01650000            A  6348    	LD	BC,101
0014CE C5                  A  6349    	PUSH	BC
0014CF CD 76 1E 00         A  6350    	CALL	_writeCommand
0014D3 C1                  A  6351    	POP	BC
                           A  6352    ;  892	  }
                           A  6353    .LINE 892
                           A  6354    
0014D4 DD7E0F              A  6355    	LD	A,(IX+%F)
0014D7 E61F                A  6356    	AND	A,%1F
0014D9 4F                  A  6357    	LD	C,A
0014DA 0600                A  6358    	LD	B,%0
0014DC C5                  A  6359    	PUSH	BC
0014DD CD 8B 1E 00         A  6360    	CALL	_writeData
0014E1 C1                  A  6361    	POP	BC
                           A  6362    ;  893	  else
                           A  6363    ;  894	  {
                           A  6364    ;  895	    writeData(RA8875_DCR_CIRCLE_START |
                           A  6365    .LINE 895
                           A  6366    
0014E2 01900000            A  6367    	LD	BC,144
0014E6 C5                  A  6368    	PUSH	BC
0014E7 CD 76 1E 00         A  6369    	CALL	_writeCommand
0014EB C1                  A  6370    	POP	BC
                           A  6371    ;  896	  }
                           A  6372    .LINE 896
                           A  6373    
0014EC DD7E12              A  6374    	LD	A,(IX+%12)
0014EF B7                  A  6375    	OR	A,A
0014F0 28 0C               A  6376    	JR	Z,L_64
                           A  6377    ;  897	  
                           A  6378    ;  898	  /* Wait for the command to finish */
                           A  6379    .LINE 898
                           A  6380    
0014F2 01600000            A  6381    	LD	BC,96
0014F6 C5                  A  6382    	PUSH	BC
0014F7 CD 8B 1E 00         A  6383    	CALL	_writeData
0014FB C1                  A  6384    	POP	BC
                           A  6385    ;  899	  while(waitPoll(RA8875_DCR, RA8875_DCR
                           A  6386    ;  900	  {
                           A  6387    .LINE 900
                           A  6388    
0014FC 18 0A               A  6389    	JR	L_67
0014FE                     A  6390    L_64:
                           A  6391    ;  901		  RZKSuspendThread(ghRA88775,1);
                           A  6392    ;  902	  }
                           A  6393    .LINE 902
                           A  6394    
0014FE 01400000            A  6395    	LD	BC,64
001502 C5                  A  6396    	PUSH	BC
001503 CD 8B 1E 00         A  6397    	CALL	_writeData
001507 C1                  A  6398    	POP	BC
                           A  6399    ;  903	}
001508                     A  6400    L_67:
                           A  6401    .LINE 903
                           A  6402    
                           A  6403    ;  904	/**************************************
                           A  6404    ;  905	/*!
                           A  6405    ;  906	      Helper function for higher level 
001508                     A  6406    L_65:
                           A  6407    .LINE 906
                           A  6408    
001508 01400000            A  6409    	LD	BC,64
00150C C5                  A  6410    	PUSH	BC
00150D 01900000            A  6411    	LD	BC,144
001511 C5                  A  6412    	PUSH	BC
001512 CD A0 1E 00         A  6413    	CALL	_waitPoll
001516 C1                  A  6414    	POP	BC
001517 C1                  A  6415    	POP	BC
001518 B7                  A  6416    	OR	A,A
001519 20 13               A  6417    	JR	NZ,L_68
                           A  6418    ;  907	*/
                           A  6419    ;  908	/**************************************
                           A  6420    .LINE 908
                           A  6421    
00151B 01010000            A  6422    	LD	BC,1
00151F C5                  A  6423    	PUSH	BC
001520 ED4B 02 00 00       A  6424    	LD	BC,(_ghRA88775)
001525 C5                  A  6425    	PUSH	BC
001526 CD 00 00 00         A  6426    	CALL	_RZKSuspendThread
00152A C1                  A  6427    	POP	BC
00152B C1                  A  6428    	POP	BC
                           A  6429    ;  909	void triangleHelper(INT16 x0, INT16 y0,
                           A  6430    .LINE 909
                           A  6431    
00152C 18 DA               A  6432    	JR	L_65
                           A  6433    ;  910	{
00152E                     A  6434    L_68:
                           A  6435    .LINE 910
                           A  6436    
00152E DDF9                A  6437    	LD	SP,IX
001530 DDE1                A  6438    	POP	IX
001532 C9                  A  6439    	RET	
                           A  6440    
                           A  6441    
                           A  6442    ;**************************** _circleHelper ***
                           A  6443    ;Name                         Addr/Register   S
                           A  6444    ;_ghRA88775                          STATIC    
                           A  6445    ;_RZKSuspendThread                   IMPORT  --
                           A  6446    ;_waitPoll                           IMPORT  --
                           A  6447    ;_writeData                          IMPORT  --
                           A  6448    ;_writeCommand                       IMPORT  --
                           A  6449    ;filled                               IX+18    
                           A  6450    ;color                                IX+15    
                           A  6451    ;r                                    IX+12    
                           A  6452    ;y0                                    IX+9    
                           A  6453    ;x0                                    IX+6    
                           A  6454    
                           A  6455    
                           A  6456    ; Stack Frame Size: 21 (bytes)
                           A  6457    ;       Spill Code: 0 (instruction)
                           A  6458    
                           A  6459    
                           A  6460    .ENDFUNC "circleHelper",910,"_circleHelper"
                           A  6461    ;  911	  /* Set Point 0 */
                           A  6462    ;  912	  writeCommand(0x91);
                           A  6463    ;  913	  writeData(x0);
                           A  6464    ;  914	  writeCommand(0x92);
                           A  6465    ;  915	  writeData(x0 >> 8);
                           A  6466    ;  916	  writeCommand(0x93);
                           A  6467    ;  917	  writeData(y0); 
001533                     A  6468    _triangleHelper:
                           A  6469    .DEFINE "_triangleHelper"
                           A  6470    
                           A  6471    .VALUE _triangleHelper
                           A  6472    
                           A  6473    .CLASS 2
                           A  6474    
                           A  6475    .TYPE 65
                           A  6476    
                           A  6477    .ENDEF
                           A  6478    
                           A  6479    .BEGFUNC "triangleHelper",917,"_triangleHelper"
                           A  6480    
                           A  6481    .LINE 917
                           A  6482    
                           A  6483    .DEFINE "x0"
                           A  6484    
                           A  6485    .CLASS 65
                           A  6486    
                           A  6487    .VALUE 6
                           A  6488    
                           A  6489    .TYPE 3
                           A  6490    
                           A  6491    .ENDEF
                           A  6492    
                           A  6493    .DEFINE "y0"
                           A  6494    
                           A  6495    .CLASS 65
                           A  6496    
                           A  6497    .VALUE 9
                           A  6498    
                           A  6499    .TYPE 3
                           A  6500    
                           A  6501    .ENDEF
                           A  6502    
                           A  6503    .DEFINE "x1"
                           A  6504    
                           A  6505    .CLASS 65
                           A  6506    
                           A  6507    .VALUE 12
                           A  6508    
                           A  6509    .TYPE 3
                           A  6510    
                           A  6511    .ENDEF
                           A  6512    
                           A  6513    .DEFINE "y1"
                           A  6514    
                           A  6515    .CLASS 65
                           A  6516    
                           A  6517    .VALUE 15
                           A  6518    
                           A  6519    .TYPE 3
                           A  6520    
                           A  6521    .ENDEF
                           A  6522    
                           A  6523    .DEFINE "x2"
                           A  6524    
                           A  6525    .CLASS 65
                           A  6526    
                           A  6527    .VALUE 18
                           A  6528    
                           A  6529    .TYPE 3
                           A  6530    
                           A  6531    .ENDEF
                           A  6532    
                           A  6533    .DEFINE "y2"
                           A  6534    
                           A  6535    .CLASS 65
                           A  6536    
                           A  6537    .VALUE 21
                           A  6538    
                           A  6539    .TYPE 3
                           A  6540    
                           A  6541    .ENDEF
                           A  6542    
                           A  6543    .DEFINE "color"
                           A  6544    
                           A  6545    .CLASS 65
                           A  6546    
                           A  6547    .VALUE 24
                           A  6548    
                           A  6549    .TYPE 13
                           A  6550    
                           A  6551    .ENDEF
                           A  6552    
                           A  6553    .DEFINE "filled"
                           A  6554    
                           A  6555    .CLASS 65
                           A  6556    
                           A  6557    .VALUE 27
                           A  6558    
                           A  6559    .TYPE 12
                           A  6560    
                           A  6561    .ENDEF
                           A  6562    
001533 DDE5                A  6563    	PUSH	IX
001535 DD210000 00         A  6564    	LD	IX,0
00153A DD39                A  6565    	ADD	IX,SP
                           A  6566    ;  918	  writeCommand(0x94);
                           A  6567    ;  919	  writeData(y0 >> 8);
                           A  6568    .LINE 919
                           A  6569    
00153C 01910000            A  6570    	LD	BC,145
001540 C5                  A  6571    	PUSH	BC
001541 CD 76 1E 00         A  6572    	CALL	_writeCommand
001545 C1                  A  6573    	POP	BC
                           A  6574    ;  920	
                           A  6575    .LINE 920
                           A  6576    
001546 DD4E06              A  6577    	LD	C,(IX+%6)
001549 0600                A  6578    	LD	B,%0
00154B C5                  A  6579    	PUSH	BC
00154C CD 8B 1E 00         A  6580    	CALL	_writeData
001550 C1                  A  6581    	POP	BC
                           A  6582    ;  921	  /* Set Point 1 */
                           A  6583    .LINE 921
                           A  6584    
001551 01920000            A  6585    	LD	BC,146
001555 C5                  A  6586    	PUSH	BC
001556 CD 76 1E 00         A  6587    	CALL	_writeCommand
00155A C1                  A  6588    	POP	BC
                           A  6589    ;  922	  writeCommand(0x95);
                           A  6590    .LINE 922
                           A  6591    
00155B DD0706              A  6592    	LD	BC,(IX+%6)
00155E CD 00 00 00         A  6593    	CALL	__stoi
001562 3E08                A  6594    	LD	A,%8
001564 CD 00 00 00         A  6595    	CALL	__ishrs_b
001568 4D                  A  6596    	LD	C,L
001569 0600                A  6597    	LD	B,%0
00156B C5                  A  6598    	PUSH	BC
00156C CD 8B 1E 00         A  6599    	CALL	_writeData
001570 C1                  A  6600    	POP	BC
                           A  6601    ;  923	  writeData(x1);
                           A  6602    .LINE 923
                           A  6603    
001571 01930000            A  6604    	LD	BC,147
001575 C5                  A  6605    	PUSH	BC
001576 CD 76 1E 00         A  6606    	CALL	_writeCommand
00157A C1                  A  6607    	POP	BC
                           A  6608    ;  924	  writeCommand(0x96);
                           A  6609    .LINE 924
                           A  6610    
00157B DD4E09              A  6611    	LD	C,(IX+%9)
00157E 0600                A  6612    	LD	B,%0
001580 C5                  A  6613    	PUSH	BC
001581 CD 8B 1E 00         A  6614    	CALL	_writeData
001585 C1                  A  6615    	POP	BC
                           A  6616    ;  925	  writeData(x1 >> 8);
                           A  6617    .LINE 925
                           A  6618    
001586 01940000            A  6619    	LD	BC,148
00158A C5                  A  6620    	PUSH	BC
00158B CD 76 1E 00         A  6621    	CALL	_writeCommand
00158F C1                  A  6622    	POP	BC
                           A  6623    ;  926	  writeCommand(0x97);
                           A  6624    .LINE 926
                           A  6625    
001590 DD0709              A  6626    	LD	BC,(IX+%9)
001593 CD 00 00 00         A  6627    	CALL	__stoi
001597 3E08                A  6628    	LD	A,%8
001599 CD 00 00 00         A  6629    	CALL	__ishrs_b
00159D 4D                  A  6630    	LD	C,L
00159E 0600                A  6631    	LD	B,%0
0015A0 C5                  A  6632    	PUSH	BC
0015A1 CD 8B 1E 00         A  6633    	CALL	_writeData
0015A5 C1                  A  6634    	POP	BC
                           A  6635    ;  927	  writeData(y1); 
                           A  6636    ;  928	  writeCommand(0x98);
                           A  6637    ;  929	  writeData(y1 >> 8);
                           A  6638    .LINE 929
                           A  6639    
0015A6 01950000            A  6640    	LD	BC,149
0015AA C5                  A  6641    	PUSH	BC
0015AB CD 76 1E 00         A  6642    	CALL	_writeCommand
0015AF C1                  A  6643    	POP	BC
                           A  6644    ;  930	
                           A  6645    .LINE 930
                           A  6646    
0015B0 DD4E0C              A  6647    	LD	C,(IX+%C)
0015B3 0600                A  6648    	LD	B,%0
0015B5 C5                  A  6649    	PUSH	BC
0015B6 CD 8B 1E 00         A  6650    	CALL	_writeData
0015BA C1                  A  6651    	POP	BC
                           A  6652    ;  931	  /* Set Point 2 */
                           A  6653    .LINE 931
                           A  6654    
0015BB 01960000            A  6655    	LD	BC,150
0015BF C5                  A  6656    	PUSH	BC
0015C0 CD 76 1E 00         A  6657    	CALL	_writeCommand
0015C4 C1                  A  6658    	POP	BC
                           A  6659    ;  932	  writeCommand(0xA9);
                           A  6660    .LINE 932
                           A  6661    
0015C5 DD070C              A  6662    	LD	BC,(IX+%C)
0015C8 CD 00 00 00         A  6663    	CALL	__stoi
0015CC 3E08                A  6664    	LD	A,%8
0015CE CD 00 00 00         A  6665    	CALL	__ishrs_b
0015D2 4D                  A  6666    	LD	C,L
0015D3 0600                A  6667    	LD	B,%0
0015D5 C5                  A  6668    	PUSH	BC
0015D6 CD 8B 1E 00         A  6669    	CALL	_writeData
0015DA C1                  A  6670    	POP	BC
                           A  6671    ;  933	  writeData(x2);
                           A  6672    .LINE 933
                           A  6673    
0015DB 01970000            A  6674    	LD	BC,151
0015DF C5                  A  6675    	PUSH	BC
0015E0 CD 76 1E 00         A  6676    	CALL	_writeCommand
0015E4 C1                  A  6677    	POP	BC
                           A  6678    ;  934	  writeCommand(0xAA);
                           A  6679    .LINE 934
                           A  6680    
0015E5 DD4E0F              A  6681    	LD	C,(IX+%F)
0015E8 0600                A  6682    	LD	B,%0
0015EA C5                  A  6683    	PUSH	BC
0015EB CD 8B 1E 00         A  6684    	CALL	_writeData
0015EF C1                  A  6685    	POP	BC
                           A  6686    ;  935	  writeData(x2 >> 8);
                           A  6687    .LINE 935
                           A  6688    
0015F0 01980000            A  6689    	LD	BC,152
0015F4 C5                  A  6690    	PUSH	BC
0015F5 CD 76 1E 00         A  6691    	CALL	_writeCommand
0015F9 C1                  A  6692    	POP	BC
                           A  6693    ;  936	  writeCommand(0xAB);
                           A  6694    .LINE 936
                           A  6695    
0015FA DD070F              A  6696    	LD	BC,(IX+%F)
0015FD CD 00 00 00         A  6697    	CALL	__stoi
001601 3E08                A  6698    	LD	A,%8
001603 CD 00 00 00         A  6699    	CALL	__ishrs_b
001607 4D                  A  6700    	LD	C,L
001608 0600                A  6701    	LD	B,%0
00160A C5                  A  6702    	PUSH	BC
00160B CD 8B 1E 00         A  6703    	CALL	_writeData
00160F C1                  A  6704    	POP	BC
                           A  6705    ;  937	  writeData(y2); 
                           A  6706    ;  938	  writeCommand(0xAC);
                           A  6707    ;  939	  writeData(y2 >> 8);
                           A  6708    .LINE 939
                           A  6709    
001610 01A90000            A  6710    	LD	BC,169
001614 C5                  A  6711    	PUSH	BC
001615 CD 76 1E 00         A  6712    	CALL	_writeCommand
001619 C1                  A  6713    	POP	BC
                           A  6714    ;  940	  
                           A  6715    .LINE 940
                           A  6716    
00161A DD4E12              A  6717    	LD	C,(IX+%12)
00161D 0600                A  6718    	LD	B,%0
00161F C5                  A  6719    	PUSH	BC
001620 CD 8B 1E 00         A  6720    	CALL	_writeData
001624 C1                  A  6721    	POP	BC
                           A  6722    ;  941	  /* Set Color */
                           A  6723    .LINE 941
                           A  6724    
001625 01AA0000            A  6725    	LD	BC,170
001629 C5                  A  6726    	PUSH	BC
00162A CD 76 1E 00         A  6727    	CALL	_writeCommand
00162E C1                  A  6728    	POP	BC
                           A  6729    ;  942	  writeCommand(0x63);
                           A  6730    .LINE 942
                           A  6731    
00162F DD0712              A  6732    	LD	BC,(IX+%12)
001632 CD 00 00 00         A  6733    	CALL	__stoi
001636 3E08                A  6734    	LD	A,%8
001638 CD 00 00 00         A  6735    	CALL	__ishrs_b
00163C 4D                  A  6736    	LD	C,L
00163D 0600                A  6737    	LD	B,%0
00163F C5                  A  6738    	PUSH	BC
001640 CD 8B 1E 00         A  6739    	CALL	_writeData
001644 C1                  A  6740    	POP	BC
                           A  6741    ;  943	  writeData((color & 0xf800) >> 11);
                           A  6742    .LINE 943
                           A  6743    
001645 01AB0000            A  6744    	LD	BC,171
001649 C5                  A  6745    	PUSH	BC
00164A CD 76 1E 00         A  6746    	CALL	_writeCommand
00164E C1                  A  6747    	POP	BC
                           A  6748    ;  944	  writeCommand(0x64);
                           A  6749    .LINE 944
                           A  6750    
00164F DD4E15              A  6751    	LD	C,(IX+%15)
001652 0600                A  6752    	LD	B,%0
001654 C5                  A  6753    	PUSH	BC
001655 CD 8B 1E 00         A  6754    	CALL	_writeData
001659 C1                  A  6755    	POP	BC
                           A  6756    ;  945	  writeData((color & 0x07e0) >> 5);
                           A  6757    .LINE 945
                           A  6758    
00165A 01AC0000            A  6759    	LD	BC,172
00165E C5                  A  6760    	PUSH	BC
00165F CD 76 1E 00         A  6761    	CALL	_writeCommand
001663 C1                  A  6762    	POP	BC
                           A  6763    ;  946	  writeCommand(0x65);
                           A  6764    .LINE 946
                           A  6765    
001664 DD0715              A  6766    	LD	BC,(IX+%15)
001667 CD 00 00 00         A  6767    	CALL	__stoi
00166B 3E08                A  6768    	LD	A,%8
00166D CD 00 00 00         A  6769    	CALL	__ishrs_b
001671 4D                  A  6770    	LD	C,L
001672 0600                A  6771    	LD	B,%0
001674 C5                  A  6772    	PUSH	BC
001675 CD 8B 1E 00         A  6773    	CALL	_writeData
001679 C1                  A  6774    	POP	BC
                           A  6775    ;  947	  writeData((color & 0x001f));
                           A  6776    ;  948	  
                           A  6777    ;  949	  /* Draw! */
                           A  6778    .LINE 949
                           A  6779    
00167A 01630000            A  6780    	LD	BC,99
00167E C5                  A  6781    	PUSH	BC
00167F CD 76 1E 00         A  6782    	CALL	_writeCommand
001683 C1                  A  6783    	POP	BC
                           A  6784    ;  950	  writeCommand(RA8875_DCR);
                           A  6785    .LINE 950
                           A  6786    
001684 DD2718              A  6787    	LD	HL,(IX+%18)
001687 3E0B                A  6788    	LD	A,%B
001689 CD 00 00 00         A  6789    	CALL	__sshru_b
00168D E5C1                A  6790    	LD	BC,HL
00168F CD 00 00 00         A  6791    	CALL	__stoiu
001693 7D                  A  6792    	LD	A,L
001694 E61F                A  6793    	AND	A,%1F
001696 6F                  A  6794    	LD	L,A
001697 4D                  A  6795    	LD	C,L
001698 0600                A  6796    	LD	B,%0
00169A C5                  A  6797    	PUSH	BC
00169B CD 8B 1E 00         A  6798    	CALL	_writeData
00169F C1                  A  6799    	POP	BC
                           A  6800    ;  951	  if (filled)
                           A  6801    .LINE 951
                           A  6802    
0016A0 01640000            A  6803    	LD	BC,100
0016A4 C5                  A  6804    	PUSH	BC
0016A5 CD 76 1E 00         A  6805    	CALL	_writeCommand
0016A9 C1                  A  6806    	POP	BC
                           A  6807    ;  952	  {
                           A  6808    .LINE 952
                           A  6809    
0016AA DD2718              A  6810    	LD	HL,(IX+%18)
0016AD 3E05                A  6811    	LD	A,%5
0016AF CD 00 00 00         A  6812    	CALL	__sshru_b
0016B3 E5C1                A  6813    	LD	BC,HL
0016B5 CD 00 00 00         A  6814    	CALL	__stoiu
0016B9 7D                  A  6815    	LD	A,L
0016BA E63F                A  6816    	AND	A,%3F
0016BC 6F                  A  6817    	LD	L,A
0016BD 4D                  A  6818    	LD	C,L
0016BE 0600                A  6819    	LD	B,%0
0016C0 C5                  A  6820    	PUSH	BC
0016C1 CD 8B 1E 00         A  6821    	CALL	_writeData
0016C5 C1                  A  6822    	POP	BC
                           A  6823    ;  953	    writeData(0xA1);
                           A  6824    .LINE 953
                           A  6825    
0016C6 01650000            A  6826    	LD	BC,101
0016CA C5                  A  6827    	PUSH	BC
0016CB CD 76 1E 00         A  6828    	CALL	_writeCommand
0016CF C1                  A  6829    	POP	BC
                           A  6830    ;  954	  }
                           A  6831    .LINE 954
                           A  6832    
0016D0 DD7E18              A  6833    	LD	A,(IX+%18)
0016D3 E61F                A  6834    	AND	A,%1F
0016D5 4F                  A  6835    	LD	C,A
0016D6 0600                A  6836    	LD	B,%0
0016D8 C5                  A  6837    	PUSH	BC
0016D9 CD 8B 1E 00         A  6838    	CALL	_writeData
0016DD C1                  A  6839    	POP	BC
                           A  6840    ;  955	  else
                           A  6841    ;  956	  {
                           A  6842    ;  957	    writeData(0x81);
                           A  6843    .LINE 957
                           A  6844    
0016DE 01900000            A  6845    	LD	BC,144
0016E2 C5                  A  6846    	PUSH	BC
0016E3 CD 76 1E 00         A  6847    	CALL	_writeCommand
0016E7 C1                  A  6848    	POP	BC
                           A  6849    ;  958	  }
                           A  6850    .LINE 958
                           A  6851    
0016E8 DD7E1B              A  6852    	LD	A,(IX+%1B)
0016EB B7                  A  6853    	OR	A,A
0016EC 28 0C               A  6854    	JR	Z,L_70
                           A  6855    ;  959	  
                           A  6856    ;  960	  /* Wait for the command to finish */
                           A  6857    .LINE 960
                           A  6858    
0016EE 01A10000            A  6859    	LD	BC,161
0016F2 C5                  A  6860    	PUSH	BC
0016F3 CD 8B 1E 00         A  6861    	CALL	_writeData
0016F7 C1                  A  6862    	POP	BC
                           A  6863    ;  961	  while(waitPoll(RA8875_DCR, RA8875_DCR
                           A  6864    ;  962	  {
                           A  6865    .LINE 962
                           A  6866    
0016F8 18 0A               A  6867    	JR	L_73
0016FA                     A  6868    L_70:
                           A  6869    ;  963		  RZKSuspendThread(ghRA88775,1);
                           A  6870    ;  964	  }
                           A  6871    .LINE 964
                           A  6872    
0016FA 01810000            A  6873    	LD	BC,129
0016FE C5                  A  6874    	PUSH	BC
0016FF CD 8B 1E 00         A  6875    	CALL	_writeData
001703 C1                  A  6876    	POP	BC
                           A  6877    ;  965	}
001704                     A  6878    L_73:
                           A  6879    .LINE 965
                           A  6880    
                           A  6881    ;  966	/**************************************
                           A  6882    ;  967	/*!
                           A  6883    ;  968	      Helper function for higher level 
001704                     A  6884    L_71:
                           A  6885    .LINE 968
                           A  6886    
001704 01800000            A  6887    	LD	BC,128
001708 C5                  A  6888    	PUSH	BC
001709 01900000            A  6889    	LD	BC,144
00170D C5                  A  6890    	PUSH	BC
00170E CD A0 1E 00         A  6891    	CALL	_waitPoll
001712 C1                  A  6892    	POP	BC
001713 C1                  A  6893    	POP	BC
001714 B7                  A  6894    	OR	A,A
001715 20 13               A  6895    	JR	NZ,L_74
                           A  6896    ;  969	*/
                           A  6897    ;  970	/**************************************
                           A  6898    .LINE 970
                           A  6899    
001717 01010000            A  6900    	LD	BC,1
00171B C5                  A  6901    	PUSH	BC
00171C ED4B 02 00 00       A  6902    	LD	BC,(_ghRA88775)
001721 C5                  A  6903    	PUSH	BC
001722 CD 00 00 00         A  6904    	CALL	_RZKSuspendThread
001726 C1                  A  6905    	POP	BC
001727 C1                  A  6906    	POP	BC
                           A  6907    ;  971	void ellipseHelper(INT16 xCenter, INT16
                           A  6908    .LINE 971
                           A  6909    
001728 18 DA               A  6910    	JR	L_71
                           A  6911    ;  972	{
00172A                     A  6912    L_74:
                           A  6913    .LINE 972
                           A  6914    
00172A DDF9                A  6915    	LD	SP,IX
00172C DDE1                A  6916    	POP	IX
00172E C9                  A  6917    	RET	
                           A  6918    
                           A  6919    
                           A  6920    ;**************************** _triangleHelper *
                           A  6921    ;Name                         Addr/Register   S
                           A  6922    ;_ghRA88775                          STATIC    
                           A  6923    ;_RZKSuspendThread                   IMPORT  --
                           A  6924    ;_waitPoll                           IMPORT  --
                           A  6925    ;_writeData                          IMPORT  --
                           A  6926    ;_writeCommand                       IMPORT  --
                           A  6927    ;filled                               IX+27    
                           A  6928    ;color                                IX+24    
                           A  6929    ;y2                                   IX+21    
                           A  6930    ;x2                                   IX+18    
                           A  6931    ;y1                                   IX+15    
                           A  6932    ;x1                                   IX+12    
                           A  6933    ;y0                                    IX+9    
                           A  6934    ;x0                                    IX+6    
                           A  6935    
                           A  6936    
                           A  6937    ; Stack Frame Size: 30 (bytes)
                           A  6938    ;       Spill Code: 0 (instruction)
                           A  6939    
                           A  6940    
                           A  6941    .ENDFUNC "triangleHelper",972,"_triangleHelper"
                           A  6942    ;  973	  /* Set Center Point */
                           A  6943    ;  974	  writeCommand(0xA5);
                           A  6944    ;  975	  writeData(xCenter);
                           A  6945    ;  976	  writeCommand(0xA6);
                           A  6946    ;  977	  writeData(xCenter >> 8);
                           A  6947    ;  978	  writeCommand(0xA7);
                           A  6948    ;  979	  writeData(yCenter); 
00172F                     A  6949    _ellipseHelper:
                           A  6950    .DEFINE "_ellipseHelper"
                           A  6951    
                           A  6952    .VALUE _ellipseHelper
                           A  6953    
                           A  6954    .CLASS 2
                           A  6955    
                           A  6956    .TYPE 65
                           A  6957    
                           A  6958    .ENDEF
                           A  6959    
                           A  6960    .BEGFUNC "ellipseHelper",979,"_ellipseHelper"
                           A  6961    
                           A  6962    .LINE 979
                           A  6963    
                           A  6964    .DEFINE "xCenter"
                           A  6965    
                           A  6966    .CLASS 65
                           A  6967    
                           A  6968    .VALUE 6
                           A  6969    
                           A  6970    .TYPE 3
                           A  6971    
                           A  6972    .ENDEF
                           A  6973    
                           A  6974    .DEFINE "yCenter"
                           A  6975    
                           A  6976    .CLASS 65
                           A  6977    
                           A  6978    .VALUE 9
                           A  6979    
                           A  6980    .TYPE 3
                           A  6981    
                           A  6982    .ENDEF
                           A  6983    
                           A  6984    .DEFINE "longAxis"
                           A  6985    
                           A  6986    .CLASS 65
                           A  6987    
                           A  6988    .VALUE 12
                           A  6989    
                           A  6990    .TYPE 3
                           A  6991    
                           A  6992    .ENDEF
                           A  6993    
                           A  6994    .DEFINE "shortAxis"
                           A  6995    
                           A  6996    .CLASS 65
                           A  6997    
                           A  6998    .VALUE 15
                           A  6999    
                           A  7000    .TYPE 3
                           A  7001    
                           A  7002    .ENDEF
                           A  7003    
                           A  7004    .DEFINE "color"
                           A  7005    
                           A  7006    .CLASS 65
                           A  7007    
                           A  7008    .VALUE 18
                           A  7009    
                           A  7010    .TYPE 13
                           A  7011    
                           A  7012    .ENDEF
                           A  7013    
                           A  7014    .DEFINE "filled"
                           A  7015    
                           A  7016    .CLASS 65
                           A  7017    
                           A  7018    .VALUE 21
                           A  7019    
                           A  7020    .TYPE 12
                           A  7021    
                           A  7022    .ENDEF
                           A  7023    
00172F DDE5                A  7024    	PUSH	IX
001731 DD210000 00         A  7025    	LD	IX,0
001736 DD39                A  7026    	ADD	IX,SP
                           A  7027    ;  980	  writeCommand(0xA8);
                           A  7028    ;  981	  writeData(yCenter >> 8);
                           A  7029    .LINE 981
                           A  7030    
001738 01A50000            A  7031    	LD	BC,165
00173C C5                  A  7032    	PUSH	BC
00173D CD 76 1E 00         A  7033    	CALL	_writeCommand
001741 C1                  A  7034    	POP	BC
                           A  7035    ;  982	
                           A  7036    .LINE 982
                           A  7037    
001742 DD4E06              A  7038    	LD	C,(IX+%6)
001745 0600                A  7039    	LD	B,%0
001747 C5                  A  7040    	PUSH	BC
001748 CD 8B 1E 00         A  7041    	CALL	_writeData
00174C C1                  A  7042    	POP	BC
                           A  7043    ;  983	  /* Set Long and Short Axis */
                           A  7044    .LINE 983
                           A  7045    
00174D 01A60000            A  7046    	LD	BC,166
001751 C5                  A  7047    	PUSH	BC
001752 CD 76 1E 00         A  7048    	CALL	_writeCommand
001756 C1                  A  7049    	POP	BC
                           A  7050    ;  984	  writeCommand(0xA1);
                           A  7051    .LINE 984
                           A  7052    
001757 DD0706              A  7053    	LD	BC,(IX+%6)
00175A CD 00 00 00         A  7054    	CALL	__stoi
00175E 3E08                A  7055    	LD	A,%8
001760 CD 00 00 00         A  7056    	CALL	__ishrs_b
001764 4D                  A  7057    	LD	C,L
001765 0600                A  7058    	LD	B,%0
001767 C5                  A  7059    	PUSH	BC
001768 CD 8B 1E 00         A  7060    	CALL	_writeData
00176C C1                  A  7061    	POP	BC
                           A  7062    ;  985	  writeData(longAxis);
                           A  7063    .LINE 985
                           A  7064    
00176D 01A70000            A  7065    	LD	BC,167
001771 C5                  A  7066    	PUSH	BC
001772 CD 76 1E 00         A  7067    	CALL	_writeCommand
001776 C1                  A  7068    	POP	BC
                           A  7069    ;  986	  writeCommand(0xA2);
                           A  7070    .LINE 986
                           A  7071    
001777 DD4E09              A  7072    	LD	C,(IX+%9)
00177A 0600                A  7073    	LD	B,%0
00177C C5                  A  7074    	PUSH	BC
00177D CD 8B 1E 00         A  7075    	CALL	_writeData
001781 C1                  A  7076    	POP	BC
                           A  7077    ;  987	  writeData(longAxis >> 8);
                           A  7078    .LINE 987
                           A  7079    
001782 01A80000            A  7080    	LD	BC,168
001786 C5                  A  7081    	PUSH	BC
001787 CD 76 1E 00         A  7082    	CALL	_writeCommand
00178B C1                  A  7083    	POP	BC
                           A  7084    ;  988	  writeCommand(0xA3);
                           A  7085    .LINE 988
                           A  7086    
00178C DD0709              A  7087    	LD	BC,(IX+%9)
00178F CD 00 00 00         A  7088    	CALL	__stoi
001793 3E08                A  7089    	LD	A,%8
001795 CD 00 00 00         A  7090    	CALL	__ishrs_b
001799 4D                  A  7091    	LD	C,L
00179A 0600                A  7092    	LD	B,%0
00179C C5                  A  7093    	PUSH	BC
00179D CD 8B 1E 00         A  7094    	CALL	_writeData
0017A1 C1                  A  7095    	POP	BC
                           A  7096    ;  989	  writeData(shortAxis); 
                           A  7097    ;  990	  writeCommand(0xA4);
                           A  7098    ;  991	  writeData(shortAxis >> 8);
                           A  7099    .LINE 991
                           A  7100    
0017A2 01A10000            A  7101    	LD	BC,161
0017A6 C5                  A  7102    	PUSH	BC
0017A7 CD 76 1E 00         A  7103    	CALL	_writeCommand
0017AB C1                  A  7104    	POP	BC
                           A  7105    ;  992	  
                           A  7106    .LINE 992
                           A  7107    
0017AC DD4E0C              A  7108    	LD	C,(IX+%C)
0017AF 0600                A  7109    	LD	B,%0
0017B1 C5                  A  7110    	PUSH	BC
0017B2 CD 8B 1E 00         A  7111    	CALL	_writeData
0017B6 C1                  A  7112    	POP	BC
                           A  7113    ;  993	  /* Set Color */
                           A  7114    .LINE 993
                           A  7115    
0017B7 01A20000            A  7116    	LD	BC,162
0017BB C5                  A  7117    	PUSH	BC
0017BC CD 76 1E 00         A  7118    	CALL	_writeCommand
0017C0 C1                  A  7119    	POP	BC
                           A  7120    ;  994	  writeCommand(0x63);
                           A  7121    .LINE 994
                           A  7122    
0017C1 DD070C              A  7123    	LD	BC,(IX+%C)
0017C4 CD 00 00 00         A  7124    	CALL	__stoi
0017C8 3E08                A  7125    	LD	A,%8
0017CA CD 00 00 00         A  7126    	CALL	__ishrs_b
0017CE 4D                  A  7127    	LD	C,L
0017CF 0600                A  7128    	LD	B,%0
0017D1 C5                  A  7129    	PUSH	BC
0017D2 CD 8B 1E 00         A  7130    	CALL	_writeData
0017D6 C1                  A  7131    	POP	BC
                           A  7132    ;  995	  writeData((color & 0xf800) >> 11);
                           A  7133    .LINE 995
                           A  7134    
0017D7 01A30000            A  7135    	LD	BC,163
0017DB C5                  A  7136    	PUSH	BC
0017DC CD 76 1E 00         A  7137    	CALL	_writeCommand
0017E0 C1                  A  7138    	POP	BC
                           A  7139    ;  996	  writeCommand(0x64);
                           A  7140    .LINE 996
                           A  7141    
0017E1 DD4E0F              A  7142    	LD	C,(IX+%F)
0017E4 0600                A  7143    	LD	B,%0
0017E6 C5                  A  7144    	PUSH	BC
0017E7 CD 8B 1E 00         A  7145    	CALL	_writeData
0017EB C1                  A  7146    	POP	BC
                           A  7147    ;  997	  writeData((color & 0x07e0) >> 5);
                           A  7148    .LINE 997
                           A  7149    
0017EC 01A40000            A  7150    	LD	BC,164
0017F0 C5                  A  7151    	PUSH	BC
0017F1 CD 76 1E 00         A  7152    	CALL	_writeCommand
0017F5 C1                  A  7153    	POP	BC
                           A  7154    ;  998	  writeCommand(0x65);
                           A  7155    .LINE 998
                           A  7156    
0017F6 DD070F              A  7157    	LD	BC,(IX+%F)
0017F9 CD 00 00 00         A  7158    	CALL	__stoi
0017FD 3E08                A  7159    	LD	A,%8
0017FF CD 00 00 00         A  7160    	CALL	__ishrs_b
001803 4D                  A  7161    	LD	C,L
001804 0600                A  7162    	LD	B,%0
001806 C5                  A  7163    	PUSH	BC
001807 CD 8B 1E 00         A  7164    	CALL	_writeData
00180B C1                  A  7165    	POP	BC
                           A  7166    ;  999	  writeData((color & 0x001f));
                           A  7167    ; 1000	  
                           A  7168    ; 1001	  /* Draw! */
                           A  7169    .LINE 1001
                           A  7170    
00180C 01630000            A  7171    	LD	BC,99
001810 C5                  A  7172    	PUSH	BC
001811 CD 76 1E 00         A  7173    	CALL	_writeCommand
001815 C1                  A  7174    	POP	BC
                           A  7175    ; 1002	  writeCommand(0xA0);
                           A  7176    .LINE 1002
                           A  7177    
001816 DD2712              A  7178    	LD	HL,(IX+%12)
001819 3E0B                A  7179    	LD	A,%B
00181B CD 00 00 00         A  7180    	CALL	__sshru_b
00181F E5C1                A  7181    	LD	BC,HL
001821 CD 00 00 00         A  7182    	CALL	__stoiu
001825 7D                  A  7183    	LD	A,L
001826 E61F                A  7184    	AND	A,%1F
001828 6F                  A  7185    	LD	L,A
001829 4D                  A  7186    	LD	C,L
00182A 0600                A  7187    	LD	B,%0
00182C C5                  A  7188    	PUSH	BC
00182D CD 8B 1E 00         A  7189    	CALL	_writeData
001831 C1                  A  7190    	POP	BC
                           A  7191    ; 1003	  if (filled)
                           A  7192    .LINE 1003
                           A  7193    
001832 01640000            A  7194    	LD	BC,100
001836 C5                  A  7195    	PUSH	BC
001837 CD 76 1E 00         A  7196    	CALL	_writeCommand
00183B C1                  A  7197    	POP	BC
                           A  7198    ; 1004	  {
                           A  7199    .LINE 1004
                           A  7200    
00183C DD2712              A  7201    	LD	HL,(IX+%12)
00183F 3E05                A  7202    	LD	A,%5
001841 CD 00 00 00         A  7203    	CALL	__sshru_b
001845 E5C1                A  7204    	LD	BC,HL
001847 CD 00 00 00         A  7205    	CALL	__stoiu
00184B 7D                  A  7206    	LD	A,L
00184C E63F                A  7207    	AND	A,%3F
00184E 6F                  A  7208    	LD	L,A
00184F 4D                  A  7209    	LD	C,L
001850 0600                A  7210    	LD	B,%0
001852 C5                  A  7211    	PUSH	BC
001853 CD 8B 1E 00         A  7212    	CALL	_writeData
001857 C1                  A  7213    	POP	BC
                           A  7214    ; 1005	    writeData(0xC0);
                           A  7215    .LINE 1005
                           A  7216    
001858 01650000            A  7217    	LD	BC,101
00185C C5                  A  7218    	PUSH	BC
00185D CD 76 1E 00         A  7219    	CALL	_writeCommand
001861 C1                  A  7220    	POP	BC
                           A  7221    ; 1006	  }
                           A  7222    .LINE 1006
                           A  7223    
001862 DD7E12              A  7224    	LD	A,(IX+%12)
001865 E61F                A  7225    	AND	A,%1F
001867 4F                  A  7226    	LD	C,A
001868 0600                A  7227    	LD	B,%0
00186A C5                  A  7228    	PUSH	BC
00186B CD 8B 1E 00         A  7229    	CALL	_writeData
00186F C1                  A  7230    	POP	BC
                           A  7231    ; 1007	  else
                           A  7232    ; 1008	  {
                           A  7233    ; 1009	    writeData(0x80);
                           A  7234    .LINE 1009
                           A  7235    
001870 01A00000            A  7236    	LD	BC,160
001874 C5                  A  7237    	PUSH	BC
001875 CD 76 1E 00         A  7238    	CALL	_writeCommand
001879 C1                  A  7239    	POP	BC
                           A  7240    ; 1010	  }
                           A  7241    .LINE 1010
                           A  7242    
00187A DD7E15              A  7243    	LD	A,(IX+%15)
00187D B7                  A  7244    	OR	A,A
00187E 28 0C               A  7245    	JR	Z,L_76
                           A  7246    ; 1011	  
                           A  7247    ; 1012	  /* Wait for the command to finish */
                           A  7248    .LINE 1012
                           A  7249    
001880 01C00000            A  7250    	LD	BC,192
001884 C5                  A  7251    	PUSH	BC
001885 CD 8B 1E 00         A  7252    	CALL	_writeData
001889 C1                  A  7253    	POP	BC
                           A  7254    ; 1013	  while(waitPoll(RA8875_ELLIPSE, RA8875
                           A  7255    ; 1014	  {
                           A  7256    .LINE 1014
                           A  7257    
00188A 18 0A               A  7258    	JR	L_79
00188C                     A  7259    L_76:
                           A  7260    ; 1015		  RZKSuspendThread(ghRA88775,1);
                           A  7261    ; 1016	  }
                           A  7262    .LINE 1016
                           A  7263    
00188C 01800000            A  7264    	LD	BC,128
001890 C5                  A  7265    	PUSH	BC
001891 CD 8B 1E 00         A  7266    	CALL	_writeData
001895 C1                  A  7267    	POP	BC
                           A  7268    ; 1017	}
001896                     A  7269    L_79:
                           A  7270    .LINE 1017
                           A  7271    
                           A  7272    ; 1018	/**************************************
                           A  7273    ; 1019	/*!
                           A  7274    ; 1020	      Helper function for higher level 
001896                     A  7275    L_77:
                           A  7276    .LINE 1020
                           A  7277    
001896 01800000            A  7278    	LD	BC,128
00189A C5                  A  7279    	PUSH	BC
00189B 01A00000            A  7280    	LD	BC,160
00189F C5                  A  7281    	PUSH	BC
0018A0 CD A0 1E 00         A  7282    	CALL	_waitPoll
0018A4 C1                  A  7283    	POP	BC
0018A5 C1                  A  7284    	POP	BC
0018A6 B7                  A  7285    	OR	A,A
0018A7 20 13               A  7286    	JR	NZ,L_80
                           A  7287    ; 1021	*/
                           A  7288    ; 1022	/**************************************
                           A  7289    .LINE 1022
                           A  7290    
0018A9 01010000            A  7291    	LD	BC,1
0018AD C5                  A  7292    	PUSH	BC
0018AE ED4B 02 00 00       A  7293    	LD	BC,(_ghRA88775)
0018B3 C5                  A  7294    	PUSH	BC
0018B4 CD 00 00 00         A  7295    	CALL	_RZKSuspendThread
0018B8 C1                  A  7296    	POP	BC
0018B9 C1                  A  7297    	POP	BC
                           A  7298    ; 1023	void curveHelper(INT16 xCenter, INT16 y
                           A  7299    .LINE 1023
                           A  7300    
0018BA 18 DA               A  7301    	JR	L_77
                           A  7302    ; 1024	{
0018BC                     A  7303    L_80:
                           A  7304    .LINE 1024
                           A  7305    
0018BC DDF9                A  7306    	LD	SP,IX
0018BE DDE1                A  7307    	POP	IX
0018C0 C9                  A  7308    	RET	
                           A  7309    
                           A  7310    
                           A  7311    ;**************************** _ellipseHelper **
                           A  7312    ;Name                         Addr/Register   S
                           A  7313    ;_ghRA88775                          STATIC    
                           A  7314    ;_RZKSuspendThread                   IMPORT  --
                           A  7315    ;_waitPoll                           IMPORT  --
                           A  7316    ;_writeData                          IMPORT  --
                           A  7317    ;_writeCommand                       IMPORT  --
                           A  7318    ;filled                               IX+21    
                           A  7319    ;color                                IX+18    
                           A  7320    ;shortAxis                            IX+15    
                           A  7321    ;longAxis                             IX+12    
                           A  7322    ;yCenter                               IX+9    
                           A  7323    ;xCenter                               IX+6    
                           A  7324    
                           A  7325    
                           A  7326    ; Stack Frame Size: 24 (bytes)
                           A  7327    ;       Spill Code: 0 (instruction)
                           A  7328    
                           A  7329    
                           A  7330    .ENDFUNC "ellipseHelper",1024,"_ellipseHelper"
                           A  7331    ; 1025	  /* Set Center Point */
                           A  7332    ; 1026	  writeCommand(0xA5);
                           A  7333    ; 1027	  writeData(xCenter);
                           A  7334    ; 1028	  writeCommand(0xA6);
                           A  7335    ; 1029	  writeData(xCenter >> 8);
                           A  7336    ; 1030	  writeCommand(0xA7);
                           A  7337    ; 1031	  writeData(yCenter); 
0018C1                     A  7338    _curveHelper:
                           A  7339    .DEFINE "_curveHelper"
                           A  7340    
                           A  7341    .VALUE _curveHelper
                           A  7342    
                           A  7343    .CLASS 2
                           A  7344    
                           A  7345    .TYPE 65
                           A  7346    
                           A  7347    .ENDEF
                           A  7348    
                           A  7349    .BEGFUNC "curveHelper",1031,"_curveHelper"
                           A  7350    
                           A  7351    .LINE 1031
                           A  7352    
                           A  7353    .DEFINE "xCenter"
                           A  7354    
                           A  7355    .CLASS 65
                           A  7356    
                           A  7357    .VALUE 6
                           A  7358    
                           A  7359    .TYPE 3
                           A  7360    
                           A  7361    .ENDEF
                           A  7362    
                           A  7363    .DEFINE "yCenter"
                           A  7364    
                           A  7365    .CLASS 65
                           A  7366    
                           A  7367    .VALUE 9
                           A  7368    
                           A  7369    .TYPE 3
                           A  7370    
                           A  7371    .ENDEF
                           A  7372    
                           A  7373    .DEFINE "longAxis"
                           A  7374    
                           A  7375    .CLASS 65
                           A  7376    
                           A  7377    .VALUE 12
                           A  7378    
                           A  7379    .TYPE 3
                           A  7380    
                           A  7381    .ENDEF
                           A  7382    
                           A  7383    .DEFINE "shortAxis"
                           A  7384    
                           A  7385    .CLASS 65
                           A  7386    
                           A  7387    .VALUE 15
                           A  7388    
                           A  7389    .TYPE 3
                           A  7390    
                           A  7391    .ENDEF
                           A  7392    
                           A  7393    .DEFINE "curvePart"
                           A  7394    
                           A  7395    .CLASS 65
                           A  7396    
                           A  7397    .VALUE 18
                           A  7398    
                           A  7399    .TYPE 12
                           A  7400    
                           A  7401    .ENDEF
                           A  7402    
                           A  7403    .DEFINE "color"
                           A  7404    
                           A  7405    .CLASS 65
                           A  7406    
                           A  7407    .VALUE 21
                           A  7408    
                           A  7409    .TYPE 13
                           A  7410    
                           A  7411    .ENDEF
                           A  7412    
                           A  7413    .DEFINE "filled"
                           A  7414    
                           A  7415    .CLASS 65
                           A  7416    
                           A  7417    .VALUE 24
                           A  7418    
                           A  7419    .TYPE 12
                           A  7420    
                           A  7421    .ENDEF
                           A  7422    
0018C1 DDE5                A  7423    	PUSH	IX
0018C3 DD210000 00         A  7424    	LD	IX,0
0018C8 DD39                A  7425    	ADD	IX,SP
                           A  7426    ; 1032	  writeCommand(0xA8);
                           A  7427    ; 1033	  writeData(yCenter >> 8);
                           A  7428    .LINE 1033
                           A  7429    
0018CA 01A50000            A  7430    	LD	BC,165
0018CE C5                  A  7431    	PUSH	BC
0018CF CD 76 1E 00         A  7432    	CALL	_writeCommand
0018D3 C1                  A  7433    	POP	BC
                           A  7434    ; 1034	
                           A  7435    .LINE 1034
                           A  7436    
0018D4 DD4E06              A  7437    	LD	C,(IX+%6)
0018D7 0600                A  7438    	LD	B,%0
0018D9 C5                  A  7439    	PUSH	BC
0018DA CD 8B 1E 00         A  7440    	CALL	_writeData
0018DE C1                  A  7441    	POP	BC
                           A  7442    ; 1035	  /* Set Long and Short Axis */
                           A  7443    .LINE 1035
                           A  7444    
0018DF 01A60000            A  7445    	LD	BC,166
0018E3 C5                  A  7446    	PUSH	BC
0018E4 CD 76 1E 00         A  7447    	CALL	_writeCommand
0018E8 C1                  A  7448    	POP	BC
                           A  7449    ; 1036	  writeCommand(0xA1);
                           A  7450    .LINE 1036
                           A  7451    
0018E9 DD0706              A  7452    	LD	BC,(IX+%6)
0018EC CD 00 00 00         A  7453    	CALL	__stoi
0018F0 3E08                A  7454    	LD	A,%8
0018F2 CD 00 00 00         A  7455    	CALL	__ishrs_b
0018F6 4D                  A  7456    	LD	C,L
0018F7 0600                A  7457    	LD	B,%0
0018F9 C5                  A  7458    	PUSH	BC
0018FA CD 8B 1E 00         A  7459    	CALL	_writeData
0018FE C1                  A  7460    	POP	BC
                           A  7461    ; 1037	  writeData(longAxis);
                           A  7462    .LINE 1037
                           A  7463    
0018FF 01A70000            A  7464    	LD	BC,167
001903 C5                  A  7465    	PUSH	BC
001904 CD 76 1E 00         A  7466    	CALL	_writeCommand
001908 C1                  A  7467    	POP	BC
                           A  7468    ; 1038	  writeCommand(0xA2);
                           A  7469    .LINE 1038
                           A  7470    
001909 DD4E09              A  7471    	LD	C,(IX+%9)
00190C 0600                A  7472    	LD	B,%0
00190E C5                  A  7473    	PUSH	BC
00190F CD 8B 1E 00         A  7474    	CALL	_writeData
001913 C1                  A  7475    	POP	BC
                           A  7476    ; 1039	  writeData(longAxis >> 8);
                           A  7477    .LINE 1039
                           A  7478    
001914 01A80000            A  7479    	LD	BC,168
001918 C5                  A  7480    	PUSH	BC
001919 CD 76 1E 00         A  7481    	CALL	_writeCommand
00191D C1                  A  7482    	POP	BC
                           A  7483    ; 1040	  writeCommand(0xA3);
                           A  7484    .LINE 1040
                           A  7485    
00191E DD0709              A  7486    	LD	BC,(IX+%9)
001921 CD 00 00 00         A  7487    	CALL	__stoi
001925 3E08                A  7488    	LD	A,%8
001927 CD 00 00 00         A  7489    	CALL	__ishrs_b
00192B 4D                  A  7490    	LD	C,L
00192C 0600                A  7491    	LD	B,%0
00192E C5                  A  7492    	PUSH	BC
00192F CD 8B 1E 00         A  7493    	CALL	_writeData
001933 C1                  A  7494    	POP	BC
                           A  7495    ; 1041	  writeData(shortAxis); 
                           A  7496    ; 1042	  writeCommand(0xA4);
                           A  7497    ; 1043	  writeData(shortAxis >> 8);
                           A  7498    .LINE 1043
                           A  7499    
001934 01A10000            A  7500    	LD	BC,161
001938 C5                  A  7501    	PUSH	BC
001939 CD 76 1E 00         A  7502    	CALL	_writeCommand
00193D C1                  A  7503    	POP	BC
                           A  7504    ; 1044	  
                           A  7505    .LINE 1044
                           A  7506    
00193E DD4E0C              A  7507    	LD	C,(IX+%C)
001941 0600                A  7508    	LD	B,%0
001943 C5                  A  7509    	PUSH	BC
001944 CD 8B 1E 00         A  7510    	CALL	_writeData
001948 C1                  A  7511    	POP	BC
                           A  7512    ; 1045	  /* Set Color */
                           A  7513    .LINE 1045
                           A  7514    
001949 01A20000            A  7515    	LD	BC,162
00194D C5                  A  7516    	PUSH	BC
00194E CD 76 1E 00         A  7517    	CALL	_writeCommand
001952 C1                  A  7518    	POP	BC
                           A  7519    ; 1046	  writeCommand(0x63);
                           A  7520    .LINE 1046
                           A  7521    
001953 DD070C              A  7522    	LD	BC,(IX+%C)
001956 CD 00 00 00         A  7523    	CALL	__stoi
00195A 3E08                A  7524    	LD	A,%8
00195C CD 00 00 00         A  7525    	CALL	__ishrs_b
001960 4D                  A  7526    	LD	C,L
001961 0600                A  7527    	LD	B,%0
001963 C5                  A  7528    	PUSH	BC
001964 CD 8B 1E 00         A  7529    	CALL	_writeData
001968 C1                  A  7530    	POP	BC
                           A  7531    ; 1047	  writeData((color & 0xf800) >> 11);
                           A  7532    .LINE 1047
                           A  7533    
001969 01A30000            A  7534    	LD	BC,163
00196D C5                  A  7535    	PUSH	BC
00196E CD 76 1E 00         A  7536    	CALL	_writeCommand
001972 C1                  A  7537    	POP	BC
                           A  7538    ; 1048	  writeCommand(0x64);
                           A  7539    .LINE 1048
                           A  7540    
001973 DD4E0F              A  7541    	LD	C,(IX+%F)
001976 0600                A  7542    	LD	B,%0
001978 C5                  A  7543    	PUSH	BC
001979 CD 8B 1E 00         A  7544    	CALL	_writeData
00197D C1                  A  7545    	POP	BC
                           A  7546    ; 1049	  writeData((color & 0x07e0) >> 5);
                           A  7547    .LINE 1049
                           A  7548    
00197E 01A40000            A  7549    	LD	BC,164
001982 C5                  A  7550    	PUSH	BC
001983 CD 76 1E 00         A  7551    	CALL	_writeCommand
001987 C1                  A  7552    	POP	BC
                           A  7553    ; 1050	  writeCommand(0x65);
                           A  7554    .LINE 1050
                           A  7555    
001988 DD070F              A  7556    	LD	BC,(IX+%F)
00198B CD 00 00 00         A  7557    	CALL	__stoi
00198F 3E08                A  7558    	LD	A,%8
001991 CD 00 00 00         A  7559    	CALL	__ishrs_b
001995 4D                  A  7560    	LD	C,L
001996 0600                A  7561    	LD	B,%0
001998 C5                  A  7562    	PUSH	BC
001999 CD 8B 1E 00         A  7563    	CALL	_writeData
00199D C1                  A  7564    	POP	BC
                           A  7565    ; 1051	  writeData((color & 0x001f));
                           A  7566    ; 1052	
                           A  7567    ; 1053	  /* Draw! */
                           A  7568    .LINE 1053
                           A  7569    
00199E 01630000            A  7570    	LD	BC,99
0019A2 C5                  A  7571    	PUSH	BC
0019A3 CD 76 1E 00         A  7572    	CALL	_writeCommand
0019A7 C1                  A  7573    	POP	BC
                           A  7574    ; 1054	  writeCommand(0xA0);
                           A  7575    .LINE 1054
                           A  7576    
0019A8 DD2715              A  7577    	LD	HL,(IX+%15)
0019AB 3E0B                A  7578    	LD	A,%B
0019AD CD 00 00 00         A  7579    	CALL	__sshru_b
0019B1 E5C1                A  7580    	LD	BC,HL
0019B3 CD 00 00 00         A  7581    	CALL	__stoiu
0019B7 7D                  A  7582    	LD	A,L
0019B8 E61F                A  7583    	AND	A,%1F
0019BA 6F                  A  7584    	LD	L,A
0019BB 4D                  A  7585    	LD	C,L
0019BC 0600                A  7586    	LD	B,%0
0019BE C5                  A  7587    	PUSH	BC
0019BF CD 8B 1E 00         A  7588    	CALL	_writeData
0019C3 C1                  A  7589    	POP	BC
                           A  7590    ; 1055	  if (filled)
                           A  7591    .LINE 1055
                           A  7592    
0019C4 01640000            A  7593    	LD	BC,100
0019C8 C5                  A  7594    	PUSH	BC
0019C9 CD 76 1E 00         A  7595    	CALL	_writeCommand
0019CD C1                  A  7596    	POP	BC
                           A  7597    ; 1056	  {
                           A  7598    .LINE 1056
                           A  7599    
0019CE DD2715              A  7600    	LD	HL,(IX+%15)
0019D1 3E05                A  7601    	LD	A,%5
0019D3 CD 00 00 00         A  7602    	CALL	__sshru_b
0019D7 E5C1                A  7603    	LD	BC,HL
0019D9 CD 00 00 00         A  7604    	CALL	__stoiu
0019DD 7D                  A  7605    	LD	A,L
0019DE E63F                A  7606    	AND	A,%3F
0019E0 6F                  A  7607    	LD	L,A
0019E1 4D                  A  7608    	LD	C,L
0019E2 0600                A  7609    	LD	B,%0
0019E4 C5                  A  7610    	PUSH	BC
0019E5 CD 8B 1E 00         A  7611    	CALL	_writeData
0019E9 C1                  A  7612    	POP	BC
                           A  7613    ; 1057	    writeData(0xD0 | (curvePart & 0x03)
                           A  7614    .LINE 1057
                           A  7615    
0019EA 01650000            A  7616    	LD	BC,101
0019EE C5                  A  7617    	PUSH	BC
0019EF CD 76 1E 00         A  7618    	CALL	_writeCommand
0019F3 C1                  A  7619    	POP	BC
                           A  7620    ; 1058	  }
                           A  7621    .LINE 1058
                           A  7622    
0019F4 DD7E15              A  7623    	LD	A,(IX+%15)
0019F7 E61F                A  7624    	AND	A,%1F
0019F9 4F                  A  7625    	LD	C,A
0019FA 0600                A  7626    	LD	B,%0
0019FC C5                  A  7627    	PUSH	BC
0019FD CD 8B 1E 00         A  7628    	CALL	_writeData
001A01 C1                  A  7629    	POP	BC
                           A  7630    ; 1059	  else
                           A  7631    ; 1060	  {
                           A  7632    ; 1061	    writeData(0x90 | (curvePart & 0x03)
                           A  7633    .LINE 1061
                           A  7634    
001A02 01A00000            A  7635    	LD	BC,160
001A06 C5                  A  7636    	PUSH	BC
001A07 CD 76 1E 00         A  7637    	CALL	_writeCommand
001A0B C1                  A  7638    	POP	BC
                           A  7639    ; 1062	  }
                           A  7640    .LINE 1062
                           A  7641    
001A0C DD7E18              A  7642    	LD	A,(IX+%18)
001A0F B7                  A  7643    	OR	A,A
001A10 28 12               A  7644    	JR	Z,L_82
                           A  7645    ; 1063	  
                           A  7646    ; 1064	  /* Wait for the command to finish */
                           A  7647    .LINE 1064
                           A  7648    
001A12 DD7E12              A  7649    	LD	A,(IX+%12)
001A15 E603                A  7650    	AND	A,%3
001A17 F6D0                A  7651    	OR	A,%D0
001A19 4F                  A  7652    	LD	C,A
001A1A 0600                A  7653    	LD	B,%0
001A1C C5                  A  7654    	PUSH	BC
001A1D CD 8B 1E 00         A  7655    	CALL	_writeData
001A21 C1                  A  7656    	POP	BC
                           A  7657    ; 1065	  while(waitPoll(RA8875_ELLIPSE, RA8875
                           A  7658    ; 1066	  {
                           A  7659    .LINE 1066
                           A  7660    
001A22 18 10               A  7661    	JR	L_85
001A24                     A  7662    L_82:
                           A  7663    ; 1067		  RZKSuspendThread(ghRA88775,1);
                           A  7664    ; 1068	  }
                           A  7665    .LINE 1068
                           A  7666    
001A24 DD7E12              A  7667    	LD	A,(IX+%12)
001A27 E603                A  7668    	AND	A,%3
001A29 F690                A  7669    	OR	A,%90
001A2B 4F                  A  7670    	LD	C,A
001A2C 0600                A  7671    	LD	B,%0
001A2E C5                  A  7672    	PUSH	BC
001A2F CD 8B 1E 00         A  7673    	CALL	_writeData
001A33 C1                  A  7674    	POP	BC
                           A  7675    ; 1069	}
001A34                     A  7676    L_85:
                           A  7677    .LINE 1069
                           A  7678    
                           A  7679    ; 1070	
                           A  7680    ; 1071	/**************************************
                           A  7681    ; 1072	/*!
001A34                     A  7682    L_83:
                           A  7683    .LINE 1072
                           A  7684    
001A34 01800000            A  7685    	LD	BC,128
001A38 C5                  A  7686    	PUSH	BC
001A39 01A00000            A  7687    	LD	BC,160
001A3D C5                  A  7688    	PUSH	BC
001A3E CD A0 1E 00         A  7689    	CALL	_waitPoll
001A42 C1                  A  7690    	POP	BC
001A43 C1                  A  7691    	POP	BC
001A44 B7                  A  7692    	OR	A,A
001A45 20 13               A  7693    	JR	NZ,L_86
                           A  7694    ; 1073	
                           A  7695    ; 1074	*/
                           A  7696    .LINE 1074
                           A  7697    
001A47 01010000            A  7698    	LD	BC,1
001A4B C5                  A  7699    	PUSH	BC
001A4C ED4B 02 00 00       A  7700    	LD	BC,(_ghRA88775)
001A51 C5                  A  7701    	PUSH	BC
001A52 CD 00 00 00         A  7702    	CALL	_RZKSuspendThread
001A56 C1                  A  7703    	POP	BC
001A57 C1                  A  7704    	POP	BC
                           A  7705    ; 1075	/**************************************
                           A  7706    .LINE 1075
                           A  7707    
001A58 18 DA               A  7708    	JR	L_83
                           A  7709    ; 1076	void fillRect(void) {
001A5A                     A  7710    L_86:
                           A  7711    .LINE 1076
                           A  7712    
001A5A DDF9                A  7713    	LD	SP,IX
001A5C DDE1                A  7714    	POP	IX
001A5E C9                  A  7715    	RET	
                           A  7716    
                           A  7717    
                           A  7718    ;**************************** _curveHelper ****
                           A  7719    ;Name                         Addr/Register   S
                           A  7720    ;_ghRA88775                          STATIC    
                           A  7721    ;_RZKSuspendThread                   IMPORT  --
                           A  7722    ;_waitPoll                           IMPORT  --
                           A  7723    ;_writeData                          IMPORT  --
                           A  7724    ;_writeCommand                       IMPORT  --
                           A  7725    ;filled                               IX+24    
                           A  7726    ;color                                IX+21    
                           A  7727    ;curvePart                            IX+18    
                           A  7728    ;shortAxis                            IX+15    
                           A  7729    ;longAxis                             IX+12    
                           A  7730    ;yCenter                               IX+9    
                           A  7731    ;xCenter                               IX+6    
                           A  7732    
                           A  7733    
                           A  7734    ; Stack Frame Size: 27 (bytes)
                           A  7735    ;       Spill Code: 0 (instruction)
                           A  7736    
                           A  7737    
                           A  7738    .ENDFUNC "curveHelper",1076,"_curveHelper"
                           A  7739    ; 1077	  writeCommand(RA8875_DCR);
                           A  7740    ; 1078	  writeData(RA8875_DCR_LINESQUTRI_STOP 
                           A  7741    ; 1079	  writeData(RA8875_DCR_LINESQUTRI_START
                           A  7742    ; 1080	  /* Wait for the command to finish */
                           A  7743    ; 1081	  while(waitPoll(RA8875_DCR, RA8875_DCR
                           A  7744    ; 1082	  {
                           A  7745    ; 1083		  RZKSuspendThread(ghRA88775,1);
001A5F                     A  7746    _fillRect:
                           A  7747    .DEFINE "_fillRect"
                           A  7748    
                           A  7749    .VALUE _fillRect
                           A  7750    
                           A  7751    .CLASS 2
                           A  7752    
                           A  7753    .TYPE 65
                           A  7754    
                           A  7755    .ENDEF
                           A  7756    
                           A  7757    .BEGFUNC "fillRect",1083,"_fillRect"
                           A  7758    
001A5F DDE5                A  7759    	PUSH	IX
001A61 DD210000 00         A  7760    	LD	IX,0
001A66 DD39                A  7761    	ADD	IX,SP
                           A  7762    ; 1084	  }
                           A  7763    .LINE 1084
                           A  7764    
001A68 01900000            A  7765    	LD	BC,144
001A6C C5                  A  7766    	PUSH	BC
001A6D CD 76 1E 00         A  7767    	CALL	_writeCommand
001A71 C1                  A  7768    	POP	BC
                           A  7769    ; 1085	}
                           A  7770    .LINE 1085
                           A  7771    
001A72 01100000            A  7772    	LD	BC,16
001A76 C5                  A  7773    	PUSH	BC
001A77 CD 8B 1E 00         A  7774    	CALL	_writeData
001A7B C1                  A  7775    	POP	BC
                           A  7776    ; 1086	
                           A  7777    .LINE 1086
                           A  7778    
001A7C 01B00000            A  7779    	LD	BC,176
001A80 C5                  A  7780    	PUSH	BC
001A81 CD 8B 1E 00         A  7781    	CALL	_writeData
001A85 C1                  A  7782    	POP	BC
                           A  7783    ; 1087	/**************************************
                           A  7784    ; 1088	/*!
001A86                     A  7785    L_87:
                           A  7786    .LINE 1088
                           A  7787    
001A86 01800000            A  7788    	LD	BC,128
001A8A C5                  A  7789    	PUSH	BC
001A8B 01900000            A  7790    	LD	BC,144
001A8F C5                  A  7791    	PUSH	BC
001A90 CD A0 1E 00         A  7792    	CALL	_waitPoll
001A94 C1                  A  7793    	POP	BC
001A95 C1                  A  7794    	POP	BC
001A96 B7                  A  7795    	OR	A,A
001A97 20 13               A  7796    	JR	NZ,L_89
                           A  7797    ; 1089	      Sets the current X/Y position on 
                           A  7798    ; 1090	      
                           A  7799    .LINE 1090
                           A  7800    
001A99 01010000            A  7801    	LD	BC,1
001A9D C5                  A  7802    	PUSH	BC
001A9E ED4B 02 00 00       A  7803    	LD	BC,(_ghRA88775)
001AA3 C5                  A  7804    	PUSH	BC
001AA4 CD 00 00 00         A  7805    	CALL	_RZKSuspendThread
001AA8 C1                  A  7806    	POP	BC
001AA9 C1                  A  7807    	POP	BC
                           A  7808    ; 1091	      @args x[in] The 0-based x locatio
                           A  7809    .LINE 1091
                           A  7810    
001AAA 18 DA               A  7811    	JR	L_87
                           A  7812    ; 1092	      @args y[in] The 0-base y location
001AAC                     A  7813    L_89:
                           A  7814    .LINE 1092
                           A  7815    
001AAC DDF9                A  7816    	LD	SP,IX
001AAE DDE1                A  7817    	POP	IX
001AB0 C9                  A  7818    	RET	
                           A  7819    
                           A  7820    
                           A  7821    ;**************************** _fillRect *******
                           A  7822    ;Name                         Addr/Register   S
                           A  7823    ;_ghRA88775                          STATIC    
                           A  7824    ;_RZKSuspendThread                   IMPORT  --
                           A  7825    ;_waitPoll                           IMPORT  --
                           A  7826    ;_writeData                          IMPORT  --
                           A  7827    ;_writeCommand                       IMPORT  --
                           A  7828    
                           A  7829    
                           A  7830    ; Stack Frame Size: 6 (bytes)
                           A  7831    ;       Spill Code: 0 (instruction)
                           A  7832    
                           A  7833    
                           A  7834    .ENDFUNC "fillRect",1092,"_fillRect"
                           A  7835    ; 1093	*/
                           A  7836    ; 1094	/**************************************
                           A  7837    ; 1095	void setXY(UINT16 x, UINT16 y) {
                           A  7838    ; 1096	  writeReg(RA8875_CURH0, x);
                           A  7839    ; 1097	  writeReg(RA8875_CURH1, x >> 8);
                           A  7840    ; 1098	  writeReg(RA8875_CURV0, y);
                           A  7841    ; 1099	  writeReg(RA8875_CURV1, y >> 8);  
                           A  7842    ; 1100	}
                           A  7843    ; 1101	/**************************************
                           A  7844    ; 1102	/*!
001AB1                     A  7845    _setXY:
                           A  7846    .DEFINE "_setXY"
                           A  7847    
                           A  7848    .VALUE _setXY
                           A  7849    
                           A  7850    .CLASS 2
                           A  7851    
                           A  7852    .TYPE 65
                           A  7853    
                           A  7854    .ENDEF
                           A  7855    
                           A  7856    .BEGFUNC "setXY",1102,"_setXY"
                           A  7857    
                           A  7858    .LINE 1102
                           A  7859    
                           A  7860    .DEFINE "x"
                           A  7861    
                           A  7862    .CLASS 65
                           A  7863    
                           A  7864    .VALUE 6
                           A  7865    
                           A  7866    .TYPE 13
                           A  7867    
                           A  7868    .ENDEF
                           A  7869    
                           A  7870    .DEFINE "y"
                           A  7871    
                           A  7872    .CLASS 65
                           A  7873    
                           A  7874    .VALUE 9
                           A  7875    
                           A  7876    .TYPE 13
                           A  7877    
                           A  7878    .ENDEF
                           A  7879    
001AB1 DDE5                A  7880    	PUSH	IX
001AB3 DD210000 00         A  7881    	LD	IX,0
001AB8 DD39                A  7882    	ADD	IX,SP
                           A  7883    ; 1103	      HW accelerated function to push a
                           A  7884    .LINE 1103
                           A  7885    
001ABA DD4E06              A  7886    	LD	C,(IX+%6)
001ABD 0600                A  7887    	LD	B,%0
001ABF C5                  A  7888    	PUSH	BC
001AC0 01460000            A  7889    	LD	BC,70
001AC4 C5                  A  7890    	PUSH	BC
001AC5 CD 4E 1F 00         A  7891    	CALL	_writeReg
001AC9 C1                  A  7892    	POP	BC
001ACA C1                  A  7893    	POP	BC
                           A  7894    ; 1104	      
                           A  7895    .LINE 1104
                           A  7896    
001ACB DD0706              A  7897    	LD	BC,(IX+%6)
001ACE CD 00 00 00         A  7898    	CALL	__stoiu
001AD2 3E08                A  7899    	LD	A,%8
001AD4 CD 00 00 00         A  7900    	CALL	__ishrs_b
001AD8 4D                  A  7901    	LD	C,L
001AD9 0600                A  7902    	LD	B,%0
001ADB C5                  A  7903    	PUSH	BC
001ADC 01470000            A  7904    	LD	BC,71
001AE0 C5                  A  7905    	PUSH	BC
001AE1 CD 4E 1F 00         A  7906    	CALL	_writeReg
001AE5 C1                  A  7907    	POP	BC
001AE6 C1                  A  7908    	POP	BC
                           A  7909    ; 1105	      @args num[in] The number of pixel
                           A  7910    .LINE 1105
                           A  7911    
001AE7 DD4E09              A  7912    	LD	C,(IX+%9)
001AEA 0600                A  7913    	LD	B,%0
001AEC C5                  A  7914    	PUSH	BC
001AED 01480000            A  7915    	LD	BC,72
001AF1 C5                  A  7916    	PUSH	BC
001AF2 CD 4E 1F 00         A  7917    	CALL	_writeReg
001AF6 C1                  A  7918    	POP	BC
001AF7 C1                  A  7919    	POP	BC
                           A  7920    ; 1106	      @args p[in]   The pixel color to 
                           A  7921    .LINE 1106
                           A  7922    
001AF8 DD0709              A  7923    	LD	BC,(IX+%9)
001AFB CD 00 00 00         A  7924    	CALL	__stoiu
001AFF 3E08                A  7925    	LD	A,%8
001B01 CD 00 00 00         A  7926    	CALL	__ishrs_b
001B05 4D                  A  7927    	LD	C,L
001B06 0600                A  7928    	LD	B,%0
001B08 C5                  A  7929    	PUSH	BC
001B09 01490000            A  7930    	LD	BC,73
001B0D C5                  A  7931    	PUSH	BC
001B0E CD 4E 1F 00         A  7932    	CALL	_writeReg
001B12 C1                  A  7933    	POP	BC
001B13 C1                  A  7934    	POP	BC
                           A  7935    ; 1107	*/
                           A  7936    .LINE 1107
                           A  7937    
001B14 DDF9                A  7938    	LD	SP,IX
001B16 DDE1                A  7939    	POP	IX
001B18 C9                  A  7940    	RET	
                           A  7941    
                           A  7942    
                           A  7943    ;**************************** _setXY **********
                           A  7944    ;Name                         Addr/Register   S
                           A  7945    ;_writeReg                           IMPORT  --
                           A  7946    ;y                                     IX+9    
                           A  7947    ;x                                     IX+6    
                           A  7948    
                           A  7949    
                           A  7950    ; Stack Frame Size: 12 (bytes)
                           A  7951    ;       Spill Code: 0 (instruction)
                           A  7952    
                           A  7953    
                           A  7954    .ENDFUNC "setXY",1107,"_setXY"
                           A  7955    ; 1108	/**************************************
                           A  7956    ; 1109	void pushPixels(UINT32 num, UINT16 p) {
                           A  7957    ; 1110		writeCommand(RA8875_MRWC);
                           A  7958    ; 1111	  while (num--) {
                           A  7959    ; 1112		RA8875_DATA_REG=p >> 8;
                           A  7960    ; 1113	#pragma asm 
                           A  7961    ; 1114		NOP
                           A  7962    ; 1115	#pragma endasm	
                           A  7963    ; 1116		RA8875_DATA_REG=p;
001B19                     A  7964    _pushPixels:
                           A  7965    .DEFINE "_pushPixels"
                           A  7966    
                           A  7967    .VALUE _pushPixels
                           A  7968    
                           A  7969    .CLASS 2
                           A  7970    
                           A  7971    .TYPE 65
                           A  7972    
                           A  7973    .ENDEF
                           A  7974    
                           A  7975    .BEGFUNC "pushPixels",1116,"_pushPixels"
                           A  7976    
                           A  7977    .LINE 1116
                           A  7978    
                           A  7979    .DEFINE "num"
                           A  7980    
                           A  7981    .CLASS 65
                           A  7982    
                           A  7983    .VALUE 6
                           A  7984    
                           A  7985    .TYPE 15
                           A  7986    
                           A  7987    .ENDEF
                           A  7988    
                           A  7989    .DEFINE "p"
                           A  7990    
                           A  7991    .CLASS 65
                           A  7992    
                           A  7993    .VALUE 12
                           A  7994    
                           A  7995    .TYPE 13
                           A  7996    
                           A  7997    .ENDEF
                           A  7998    
001B19 DDE5                A  7999    	PUSH	IX
001B1B DD210000 00         A  8000    	LD	IX,0
001B20 DD39                A  8001    	ADD	IX,SP
001B22 C5                  A  8002    	PUSH	BC
001B23 C5                  A  8003    	PUSH	BC
001B24 3B                  A  8004    	DEC	SP
001B25 3B                  A  8005    	DEC	SP
                           A  8006    ; 1117	  }
                           A  8007    .LINE 1117
                           A  8008    
001B26 01020000            A  8009    	LD	BC,2
001B2A C5                  A  8010    	PUSH	BC
001B2B CD 76 1E 00         A  8011    	CALL	_writeCommand
001B2F C1                  A  8012    	POP	BC
                           A  8013    ; 1118	}
001B30                     A  8014    L_92:
                           A  8015    .LINE 1118
                           A  8016    
001B30 DD1706              A  8017    	LD	DE,(IX+%6)
001B33 DD1FF8              A  8018    	LD	(IX+%FFFFFFF8),DE	; spill
001B36 DD6609              A  8019    	LD	H,(IX+%9)
001B39 DD74FE              A  8020    	LD	(IX+%FFFFFFFE),H	; spill
001B3C DD2706              A  8021    	LD	HL,(IX+%6)
001B3F DD5E09              A  8022    	LD	E,(IX+%9)
001B42 01010000            A  8023    	LD	BC,1
001B46 AF                  A  8024    	XOR	A,A
001B47 CD 00 00 00         A  8025    	CALL	__lsub
001B4B DD2F06              A  8026    	LD	(IX+%6),HL
001B4E DD7309              A  8027    	LD	(IX+%9),E
001B51 DD66FE              A  8028    	LD	H,(IX+%FFFFFFFE)	; unspill
001B54 5C                  A  8029    	LD	E,H
001B55 DD1FFB              A  8030    	LD	(IX+%FFFFFFFB),DE	; spill
001B58 DD27F8              A  8031    	LD	HL,(IX+%FFFFFFF8)
001B5B DD17FB              A  8032    	LD	DE,(IX+%FFFFFFFB)	; unspill
001B5E CD 00 00 00         A  8033    	CALL	__lcmpzero
001B62 28 1C               A  8034    	JR	Z,L_94
                           A  8035    ; 1119	/**************************************
                           A  8036    .LINE 1119
                           A  8037    
001B64 DD070C              A  8038    	LD	BC,(IX+%C)
001B67 CD 00 00 00         A  8039    	CALL	__stoiu
001B6B 3E08                A  8040    	LD	A,%8
001B6D CD 00 00 00         A  8041    	CALL	__ishrs_b
001B71 7D                  A  8042    	LD	A,L
001B72 320000D0            A  8043    	LD	(13631488),A
                           A  8044    ; 1120	/*!
                           A  8045    ; 1121	      Draws a single pixel at the speci
                           A  8046    .LINE 1121
                           A  8047    
001B76 00                  A  8048    	NOP 
                           A  8049    ; 1122	
                           A  8050    ; 1123	      @args x[in]     The 0-based x loc
                           A  8051    .LINE 1123
                           A  8052    
001B77 DD7E0C              A  8053    	LD	A,(IX+%C)
001B7A 320000D0            A  8054    	LD	(13631488),A
                           A  8055    ; 1124	      @args y[in]     The 0-base y loca
                           A  8056    .LINE 1124
                           A  8057    
001B7E 18 B0               A  8058    	JR	L_92
                           A  8059    ; 1125	      @args color[in] The RGB565 color 
001B80                     A  8060    L_94:
                           A  8061    .LINE 1125
                           A  8062    
001B80 DDF9                A  8063    	LD	SP,IX
001B82 DDE1                A  8064    	POP	IX
001B84 C9                  A  8065    	RET	
                           A  8066    
                           A  8067    
                           A  8068    ;**************************** _pushPixels *****
                           A  8069    ;Name                         Addr/Register   S
                           A  8070    ;_writeCommand                       IMPORT  --
                           A  8071    ;p                                    IX+12    
                           A  8072    ;num                                   IX+6    
                           A  8073    
                           A  8074    
                           A  8075    ; Stack Frame Size: 23 (bytes)
                           A  8076    ;       Spill Code: -1 (instruction)
                           A  8077    
                           A  8078    
                           A  8079    .ENDFUNC "pushPixels",1125,"_pushPixels"
                           A  8080    ; 1126	*/
                           A  8081    ; 1127	/**************************************
                           A  8082    ; 1128	void DrawPixel(INT16 x, INT16 y, UINT16
                           A  8083    ; 1129	{
                           A  8084    ; 1130	  writeReg(RA8875_CURH0, x);
                           A  8085    ; 1131	  writeReg(RA8875_CURH1, x >> 8);
                           A  8086    ; 1132	  writeReg(RA8875_CURV0, y);
                           A  8087    ; 1133	  writeReg(RA8875_CURV1, y >> 8);  
                           A  8088    ; 1134	  writeCommand(RA8875_MRWC);
                           A  8089    ; 1135	  RA8875_DATA_REG=color >> 8;
                           A  8090    ; 1136	  RA8875_DATA_REG=color;
001B85                     A  8091    _DrawPixel:
                           A  8092    .DEFINE "_DrawPixel"
                           A  8093    
                           A  8094    .VALUE _DrawPixel
                           A  8095    
                           A  8096    .CLASS 2
                           A  8097    
                           A  8098    .TYPE 65
                           A  8099    
                           A  8100    .ENDEF
                           A  8101    
                           A  8102    .BEGFUNC "DrawPixel",1136,"_DrawPixel"
                           A  8103    
                           A  8104    .LINE 1136
                           A  8105    
                           A  8106    .DEFINE "x"
                           A  8107    
                           A  8108    .CLASS 65
                           A  8109    
                           A  8110    .VALUE 6
                           A  8111    
                           A  8112    .TYPE 3
                           A  8113    
                           A  8114    .ENDEF
                           A  8115    
                           A  8116    .DEFINE "y"
                           A  8117    
                           A  8118    .CLASS 65
                           A  8119    
                           A  8120    .VALUE 9
                           A  8121    
                           A  8122    .TYPE 3
                           A  8123    
                           A  8124    .ENDEF
                           A  8125    
                           A  8126    .DEFINE "color"
                           A  8127    
                           A  8128    .CLASS 65
                           A  8129    
                           A  8130    .VALUE 12
                           A  8131    
                           A  8132    .TYPE 13
                           A  8133    
                           A  8134    .ENDEF
                           A  8135    
001B85 DDE5                A  8136    	PUSH	IX
001B87 DD210000 00         A  8137    	LD	IX,0
001B8C DD39                A  8138    	ADD	IX,SP
                           A  8139    ; 1137	}
                           A  8140    .LINE 1137
                           A  8141    
001B8E DD4E06              A  8142    	LD	C,(IX+%6)
001B91 0600                A  8143    	LD	B,%0
001B93 C5                  A  8144    	PUSH	BC
001B94 01460000            A  8145    	LD	BC,70
001B98 C5                  A  8146    	PUSH	BC
001B99 CD 4E 1F 00         A  8147    	CALL	_writeReg
001B9D C1                  A  8148    	POP	BC
001B9E C1                  A  8149    	POP	BC
                           A  8150    ; 1138	
                           A  8151    .LINE 1138
                           A  8152    
001B9F DD0706              A  8153    	LD	BC,(IX+%6)
001BA2 CD 00 00 00         A  8154    	CALL	__stoi
001BA6 3E08                A  8155    	LD	A,%8
001BA8 CD 00 00 00         A  8156    	CALL	__ishrs_b
001BAC 4D                  A  8157    	LD	C,L
001BAD 0600                A  8158    	LD	B,%0
001BAF C5                  A  8159    	PUSH	BC
001BB0 01470000            A  8160    	LD	BC,71
001BB4 C5                  A  8161    	PUSH	BC
001BB5 CD 4E 1F 00         A  8162    	CALL	_writeReg
001BB9 C1                  A  8163    	POP	BC
001BBA C1                  A  8164    	POP	BC
                           A  8165    ; 1139	void DrawNextHPixel(UINT16 color)
                           A  8166    .LINE 1139
                           A  8167    
001BBB DD4E09              A  8168    	LD	C,(IX+%9)
001BBE 0600                A  8169    	LD	B,%0
001BC0 C5                  A  8170    	PUSH	BC
001BC1 01480000            A  8171    	LD	BC,72
001BC5 C5                  A  8172    	PUSH	BC
001BC6 CD 4E 1F 00         A  8173    	CALL	_writeReg
001BCA C1                  A  8174    	POP	BC
001BCB C1                  A  8175    	POP	BC
                           A  8176    ; 1140	{
                           A  8177    .LINE 1140
                           A  8178    
001BCC DD0709              A  8179    	LD	BC,(IX+%9)
001BCF CD 00 00 00         A  8180    	CALL	__stoi
001BD3 3E08                A  8181    	LD	A,%8
001BD5 CD 00 00 00         A  8182    	CALL	__ishrs_b
001BD9 4D                  A  8183    	LD	C,L
001BDA 0600                A  8184    	LD	B,%0
001BDC C5                  A  8185    	PUSH	BC
001BDD 01490000            A  8186    	LD	BC,73
001BE1 C5                  A  8187    	PUSH	BC
001BE2 CD 4E 1F 00         A  8188    	CALL	_writeReg
001BE6 C1                  A  8189    	POP	BC
001BE7 C1                  A  8190    	POP	BC
                           A  8191    ; 1141		writeCommand(RA8875_MRWC);
                           A  8192    .LINE 1141
                           A  8193    
001BE8 01020000            A  8194    	LD	BC,2
001BEC C5                  A  8195    	PUSH	BC
001BED CD 76 1E 00         A  8196    	CALL	_writeCommand
001BF1 C1                  A  8197    	POP	BC
                           A  8198    ; 1142		RA8875_DATA_REG=color >> 8;
                           A  8199    .LINE 1142
                           A  8200    
001BF2 DD070C              A  8201    	LD	BC,(IX+%C)
001BF5 CD 00 00 00         A  8202    	CALL	__stoiu
001BF9 3E08                A  8203    	LD	A,%8
001BFB CD 00 00 00         A  8204    	CALL	__ishrs_b
001BFF 7D                  A  8205    	LD	A,L
001C00 320000D0            A  8206    	LD	(13631488),A
                           A  8207    ; 1143		RA8875_DATA_REG=color;
                           A  8208    .LINE 1143
                           A  8209    
001C04 DD7E0C              A  8210    	LD	A,(IX+%C)
001C07 320000D0            A  8211    	LD	(13631488),A
                           A  8212    ; 1144	}
                           A  8213    .LINE 1144
                           A  8214    
001C0B DDF9                A  8215    	LD	SP,IX
001C0D DDE1                A  8216    	POP	IX
001C0F C9                  A  8217    	RET	
                           A  8218    
                           A  8219    
                           A  8220    ;**************************** _DrawPixel ******
                           A  8221    ;Name                         Addr/Register   S
                           A  8222    ;_writeCommand                       IMPORT  --
                           A  8223    ;_writeReg                           IMPORT  --
                           A  8224    ;color                                IX+12    
                           A  8225    ;y                                     IX+9    
                           A  8226    ;x                                     IX+6    
                           A  8227    
                           A  8228    
                           A  8229    ; Stack Frame Size: 15 (bytes)
                           A  8230    ;       Spill Code: -1 (instruction)
                           A  8231    
                           A  8232    
                           A  8233    .ENDFUNC "DrawPixel",1144,"_DrawPixel"
                           A  8234    ; 1145	
                           A  8235    ; 1146	void DrawLine(INT16 x0, INT16 y0, INT16
                           A  8236    ; 1147	{
001C10                     A  8237    _DrawNextHPixel:
                           A  8238    .DEFINE "_DrawNextHPixel"
                           A  8239    
                           A  8240    .VALUE _DrawNextHPixel
                           A  8241    
                           A  8242    .CLASS 2
                           A  8243    
                           A  8244    .TYPE 65
                           A  8245    
                           A  8246    .ENDEF
                           A  8247    
                           A  8248    .BEGFUNC "DrawNextHPixel",1147,"_DrawNextHPixel
                           A  8249    
                           A  8250    .LINE 1147
                           A  8251    
                           A  8252    .DEFINE "color"
                           A  8253    
                           A  8254    .CLASS 65
                           A  8255    
                           A  8256    .VALUE 6
                           A  8257    
                           A  8258    .TYPE 13
                           A  8259    
                           A  8260    .ENDEF
                           A  8261    
001C10 DDE5                A  8262    	PUSH	IX
001C12 DD210000 00         A  8263    	LD	IX,0
001C17 DD39                A  8264    	ADD	IX,SP
                           A  8265    ; 1148	  /* Set X */
                           A  8266    .LINE 1148
                           A  8267    
001C19 01020000            A  8268    	LD	BC,2
001C1D C5                  A  8269    	PUSH	BC
001C1E CD 76 1E 00         A  8270    	CALL	_writeCommand
001C22 C1                  A  8271    	POP	BC
                           A  8272    ; 1149	  writeCommand(0x91);
                           A  8273    .LINE 1149
                           A  8274    
001C23 DD0706              A  8275    	LD	BC,(IX+%6)
001C26 CD 00 00 00         A  8276    	CALL	__stoiu
001C2A 3E08                A  8277    	LD	A,%8
001C2C CD 00 00 00         A  8278    	CALL	__ishrs_b
001C30 7D                  A  8279    	LD	A,L
001C31 320000D0            A  8280    	LD	(13631488),A
                           A  8281    ; 1150	  writeData(x0);
                           A  8282    .LINE 1150
                           A  8283    
001C35 DD7E06              A  8284    	LD	A,(IX+%6)
001C38 320000D0            A  8285    	LD	(13631488),A
                           A  8286    ; 1151	  writeCommand(0x92);
                           A  8287    .LINE 1151
                           A  8288    
001C3C DDF9                A  8289    	LD	SP,IX
001C3E DDE1                A  8290    	POP	IX
001C40 C9                  A  8291    	RET	
                           A  8292    
                           A  8293    
                           A  8294    ;**************************** _DrawNextHPixel *
                           A  8295    ;Name                         Addr/Register   S
                           A  8296    ;_writeCommand                       IMPORT  --
                           A  8297    ;color                                 IX+6    
                           A  8298    
                           A  8299    
                           A  8300    ; Stack Frame Size: 9 (bytes)
                           A  8301    ;       Spill Code: -1 (instruction)
                           A  8302    
                           A  8303    
                           A  8304    .ENDFUNC "DrawNextHPixel",1151,"_DrawNextHPixel
                           A  8305    ; 1152	  writeData(x0 >> 8);
                           A  8306    ; 1153	  
                           A  8307    ; 1154	  /* Set Y */
001C41                     A  8308    _DrawLine:
                           A  8309    .DEFINE "_DrawLine"
                           A  8310    
                           A  8311    .VALUE _DrawLine
                           A  8312    
                           A  8313    .CLASS 2
                           A  8314    
                           A  8315    .TYPE 65
                           A  8316    
                           A  8317    .ENDEF
                           A  8318    
                           A  8319    .BEGFUNC "DrawLine",1154,"_DrawLine"
                           A  8320    
                           A  8321    .LINE 1154
                           A  8322    
                           A  8323    .DEFINE "x0"
                           A  8324    
                           A  8325    .CLASS 65
                           A  8326    
                           A  8327    .VALUE 6
                           A  8328    
                           A  8329    .TYPE 3
                           A  8330    
                           A  8331    .ENDEF
                           A  8332    
                           A  8333    .DEFINE "y0"
                           A  8334    
                           A  8335    .CLASS 65
                           A  8336    
                           A  8337    .VALUE 9
                           A  8338    
                           A  8339    .TYPE 3
                           A  8340    
                           A  8341    .ENDEF
                           A  8342    
                           A  8343    .DEFINE "x1"
                           A  8344    
                           A  8345    .CLASS 65
                           A  8346    
                           A  8347    .VALUE 12
                           A  8348    
                           A  8349    .TYPE 3
                           A  8350    
                           A  8351    .ENDEF
                           A  8352    
                           A  8353    .DEFINE "y1"
                           A  8354    
                           A  8355    .CLASS 65
                           A  8356    
                           A  8357    .VALUE 15
                           A  8358    
                           A  8359    .TYPE 3
                           A  8360    
                           A  8361    .ENDEF
                           A  8362    
                           A  8363    .DEFINE "color"
                           A  8364    
                           A  8365    .CLASS 65
                           A  8366    
                           A  8367    .VALUE 18
                           A  8368    
                           A  8369    .TYPE 13
                           A  8370    
                           A  8371    .ENDEF
                           A  8372    
001C41 DDE5                A  8373    	PUSH	IX
001C43 DD210000 00         A  8374    	LD	IX,0
001C48 DD39                A  8375    	ADD	IX,SP
                           A  8376    ; 1155	  writeCommand(0x93);
                           A  8377    ; 1156	  writeData(y0); 
                           A  8378    .LINE 1156
                           A  8379    
001C4A 01910000            A  8380    	LD	BC,145
001C4E C5                  A  8381    	PUSH	BC
001C4F CD 76 1E 00         A  8382    	CALL	_writeCommand
001C53 C1                  A  8383    	POP	BC
                           A  8384    ; 1157	  writeCommand(0x94);
                           A  8385    .LINE 1157
                           A  8386    
001C54 DD4E06              A  8387    	LD	C,(IX+%6)
001C57 0600                A  8388    	LD	B,%0
001C59 C5                  A  8389    	PUSH	BC
001C5A CD 8B 1E 00         A  8390    	CALL	_writeData
001C5E C1                  A  8391    	POP	BC
                           A  8392    ; 1158	  writeData(y0 >> 8);
                           A  8393    .LINE 1158
                           A  8394    
001C5F 01920000            A  8395    	LD	BC,146
001C63 C5                  A  8396    	PUSH	BC
001C64 CD 76 1E 00         A  8397    	CALL	_writeCommand
001C68 C1                  A  8398    	POP	BC
                           A  8399    ; 1159	  
                           A  8400    .LINE 1159
                           A  8401    
001C69 DD0706              A  8402    	LD	BC,(IX+%6)
001C6C CD 00 00 00         A  8403    	CALL	__stoi
001C70 3E08                A  8404    	LD	A,%8
001C72 CD 00 00 00         A  8405    	CALL	__ishrs_b
001C76 4D                  A  8406    	LD	C,L
001C77 0600                A  8407    	LD	B,%0
001C79 C5                  A  8408    	PUSH	BC
001C7A CD 8B 1E 00         A  8409    	CALL	_writeData
001C7E C1                  A  8410    	POP	BC
                           A  8411    ; 1160	  /* Set X1 */
                           A  8412    ; 1161	  writeCommand(0x95);
                           A  8413    ; 1162	  writeData(x1);
                           A  8414    .LINE 1162
                           A  8415    
001C7F 01930000            A  8416    	LD	BC,147
001C83 C5                  A  8417    	PUSH	BC
001C84 CD 76 1E 00         A  8418    	CALL	_writeCommand
001C88 C1                  A  8419    	POP	BC
                           A  8420    ; 1163	  writeCommand(0x96);
                           A  8421    .LINE 1163
                           A  8422    
001C89 DD4E09              A  8423    	LD	C,(IX+%9)
001C8C 0600                A  8424    	LD	B,%0
001C8E C5                  A  8425    	PUSH	BC
001C8F CD 8B 1E 00         A  8426    	CALL	_writeData
001C93 C1                  A  8427    	POP	BC
                           A  8428    ; 1164	  writeData((x1) >> 8);
                           A  8429    .LINE 1164
                           A  8430    
001C94 01940000            A  8431    	LD	BC,148
001C98 C5                  A  8432    	PUSH	BC
001C99 CD 76 1E 00         A  8433    	CALL	_writeCommand
001C9D C1                  A  8434    	POP	BC
                           A  8435    ; 1165	  
                           A  8436    .LINE 1165
                           A  8437    
001C9E DD0709              A  8438    	LD	BC,(IX+%9)
001CA1 CD 00 00 00         A  8439    	CALL	__stoi
001CA5 3E08                A  8440    	LD	A,%8
001CA7 CD 00 00 00         A  8441    	CALL	__ishrs_b
001CAB 4D                  A  8442    	LD	C,L
001CAC 0600                A  8443    	LD	B,%0
001CAE C5                  A  8444    	PUSH	BC
001CAF CD 8B 1E 00         A  8445    	CALL	_writeData
001CB3 C1                  A  8446    	POP	BC
                           A  8447    ; 1166	  /* Set Y1 */
                           A  8448    ; 1167	  writeCommand(0x97);
                           A  8449    ; 1168	  writeData(y1); 
                           A  8450    .LINE 1168
                           A  8451    
001CB4 01950000            A  8452    	LD	BC,149
001CB8 C5                  A  8453    	PUSH	BC
001CB9 CD 76 1E 00         A  8454    	CALL	_writeCommand
001CBD C1                  A  8455    	POP	BC
                           A  8456    ; 1169	  writeCommand(0x98);
                           A  8457    .LINE 1169
                           A  8458    
001CBE DD4E0C              A  8459    	LD	C,(IX+%C)
001CC1 0600                A  8460    	LD	B,%0
001CC3 C5                  A  8461    	PUSH	BC
001CC4 CD 8B 1E 00         A  8462    	CALL	_writeData
001CC8 C1                  A  8463    	POP	BC
                           A  8464    ; 1170	  writeData((y1) >> 8);
                           A  8465    .LINE 1170
                           A  8466    
001CC9 01960000            A  8467    	LD	BC,150
001CCD C5                  A  8468    	PUSH	BC
001CCE CD 76 1E 00         A  8469    	CALL	_writeCommand
001CD2 C1                  A  8470    	POP	BC
                           A  8471    ; 1171	  
                           A  8472    .LINE 1171
                           A  8473    
001CD3 DD070C              A  8474    	LD	BC,(IX+%C)
001CD6 CD 00 00 00         A  8475    	CALL	__stoi
001CDA 3E08                A  8476    	LD	A,%8
001CDC CD 00 00 00         A  8477    	CALL	__ishrs_b
001CE0 4D                  A  8478    	LD	C,L
001CE1 0600                A  8479    	LD	B,%0
001CE3 C5                  A  8480    	PUSH	BC
001CE4 CD 8B 1E 00         A  8481    	CALL	_writeData
001CE8 C1                  A  8482    	POP	BC
                           A  8483    ; 1172	  /* Set Color */
                           A  8484    ; 1173	  writeCommand(0x63);
                           A  8485    ; 1174	  writeData((color & 0xf800) >> 11);
                           A  8486    .LINE 1174
                           A  8487    
001CE9 01970000            A  8488    	LD	BC,151
001CED C5                  A  8489    	PUSH	BC
001CEE CD 76 1E 00         A  8490    	CALL	_writeCommand
001CF2 C1                  A  8491    	POP	BC
                           A  8492    ; 1175	  writeCommand(0x64);
                           A  8493    .LINE 1175
                           A  8494    
001CF3 DD4E0F              A  8495    	LD	C,(IX+%F)
001CF6 0600                A  8496    	LD	B,%0
001CF8 C5                  A  8497    	PUSH	BC
001CF9 CD 8B 1E 00         A  8498    	CALL	_writeData
001CFD C1                  A  8499    	POP	BC
                           A  8500    ; 1176	  writeData((color & 0x07e0) >> 5);
                           A  8501    .LINE 1176
                           A  8502    
001CFE 01980000            A  8503    	LD	BC,152
001D02 C5                  A  8504    	PUSH	BC
001D03 CD 76 1E 00         A  8505    	CALL	_writeCommand
001D07 C1                  A  8506    	POP	BC
                           A  8507    ; 1177	  writeCommand(0x65);
                           A  8508    .LINE 1177
                           A  8509    
001D08 DD070F              A  8510    	LD	BC,(IX+%F)
001D0B CD 00 00 00         A  8511    	CALL	__stoi
001D0F 3E08                A  8512    	LD	A,%8
001D11 CD 00 00 00         A  8513    	CALL	__ishrs_b
001D15 4D                  A  8514    	LD	C,L
001D16 0600                A  8515    	LD	B,%0
001D18 C5                  A  8516    	PUSH	BC
001D19 CD 8B 1E 00         A  8517    	CALL	_writeData
001D1D C1                  A  8518    	POP	BC
                           A  8519    ; 1178	  writeData((color & 0x001f));
                           A  8520    ; 1179	
                           A  8521    ; 1180	  /* Draw! */
                           A  8522    .LINE 1180
                           A  8523    
001D1E 01630000            A  8524    	LD	BC,99
001D22 C5                  A  8525    	PUSH	BC
001D23 CD 76 1E 00         A  8526    	CALL	_writeCommand
001D27 C1                  A  8527    	POP	BC
                           A  8528    ; 1181	  writeCommand(RA8875_DCR);
                           A  8529    .LINE 1181
                           A  8530    
001D28 DD2712              A  8531    	LD	HL,(IX+%12)
001D2B 3E0B                A  8532    	LD	A,%B
001D2D CD 00 00 00         A  8533    	CALL	__sshru_b
001D31 E5C1                A  8534    	LD	BC,HL
001D33 CD 00 00 00         A  8535    	CALL	__stoiu
001D37 7D                  A  8536    	LD	A,L
001D38 E61F                A  8537    	AND	A,%1F
001D3A 6F                  A  8538    	LD	L,A
001D3B 4D                  A  8539    	LD	C,L
001D3C 0600                A  8540    	LD	B,%0
001D3E C5                  A  8541    	PUSH	BC
001D3F CD 8B 1E 00         A  8542    	CALL	_writeData
001D43 C1                  A  8543    	POP	BC
                           A  8544    ; 1182	  writeData(0x80);
                           A  8545    .LINE 1182
                           A  8546    
001D44 01640000            A  8547    	LD	BC,100
001D48 C5                  A  8548    	PUSH	BC
001D49 CD 76 1E 00         A  8549    	CALL	_writeCommand
001D4D C1                  A  8550    	POP	BC
                           A  8551    ; 1183	  
                           A  8552    .LINE 1183
                           A  8553    
001D4E DD2712              A  8554    	LD	HL,(IX+%12)
001D51 3E05                A  8555    	LD	A,%5
001D53 CD 00 00 00         A  8556    	CALL	__sshru_b
001D57 E5C1                A  8557    	LD	BC,HL
001D59 CD 00 00 00         A  8558    	CALL	__stoiu
001D5D 7D                  A  8559    	LD	A,L
001D5E E63F                A  8560    	AND	A,%3F
001D60 6F                  A  8561    	LD	L,A
001D61 4D                  A  8562    	LD	C,L
001D62 0600                A  8563    	LD	B,%0
001D64 C5                  A  8564    	PUSH	BC
001D65 CD 8B 1E 00         A  8565    	CALL	_writeData
001D69 C1                  A  8566    	POP	BC
                           A  8567    ; 1184	  /* Wait for the command to finish */
                           A  8568    .LINE 1184
                           A  8569    
001D6A 01650000            A  8570    	LD	BC,101
001D6E C5                  A  8571    	PUSH	BC
001D6F CD 76 1E 00         A  8572    	CALL	_writeCommand
001D73 C1                  A  8573    	POP	BC
                           A  8574    ; 1185	  while(waitPoll(RA8875_DCR, RA8875_DCR
                           A  8575    .LINE 1185
                           A  8576    
001D74 DD7E12              A  8577    	LD	A,(IX+%12)
001D77 E61F                A  8578    	AND	A,%1F
001D79 4F                  A  8579    	LD	C,A
001D7A 0600                A  8580    	LD	B,%0
001D7C C5                  A  8581    	PUSH	BC
001D7D CD 8B 1E 00         A  8582    	CALL	_writeData
001D81 C1                  A  8583    	POP	BC
                           A  8584    ; 1186	  {
                           A  8585    ; 1187	  }
                           A  8586    ; 1188	}
                           A  8587    .LINE 1188
                           A  8588    
001D82 01900000            A  8589    	LD	BC,144
001D86 C5                  A  8590    	PUSH	BC
001D87 CD 76 1E 00         A  8591    	CALL	_writeCommand
001D8B C1                  A  8592    	POP	BC
                           A  8593    ; 1189	
                           A  8594    .LINE 1189
                           A  8595    
001D8C 01800000            A  8596    	LD	BC,128
001D90 C5                  A  8597    	PUSH	BC
001D91 CD 8B 1E 00         A  8598    	CALL	_writeData
001D95 C1                  A  8599    	POP	BC
                           A  8600    ; 1190	/**************************************
                           A  8601    ; 1191	/*!
                           A  8602    ; 1192	      Turns the display on or off
001D96                     A  8603    L_97:
                           A  8604    .LINE 1192
                           A  8605    
001D96 01800000            A  8606    	LD	BC,128
001D9A C5                  A  8607    	PUSH	BC
001D9B 01900000            A  8608    	LD	BC,144
001D9F C5                  A  8609    	PUSH	BC
001DA0 CD A0 1E 00         A  8610    	CALL	_waitPoll
001DA4 C1                  A  8611    	POP	BC
001DA5 C1                  A  8612    	POP	BC
001DA6 B7                  A  8613    	OR	A,A
001DA7 28 ED               A  8614    	JR	Z,L_97
                           A  8615    ; 1193	*/
                           A  8616    ; 1194	/**************************************
                           A  8617    .LINE 1194
                           A  8618    
                           A  8619    ; 1195	void displayOn(UINT8 on) 
                           A  8620    .LINE 1195
                           A  8621    
001DA9 DDF9                A  8622    	LD	SP,IX
001DAB DDE1                A  8623    	POP	IX
001DAD C9                  A  8624    	RET	
                           A  8625    
                           A  8626    
                           A  8627    ;**************************** _DrawLine *******
                           A  8628    ;Name                         Addr/Register   S
                           A  8629    ;_waitPoll                           IMPORT  --
                           A  8630    ;_writeData                          IMPORT  --
                           A  8631    ;_writeCommand                       IMPORT  --
                           A  8632    ;color                                IX+18    
                           A  8633    ;y1                                   IX+15    
                           A  8634    ;x1                                   IX+12    
                           A  8635    ;y0                                    IX+9    
                           A  8636    ;x0                                    IX+6    
                           A  8637    
                           A  8638    
                           A  8639    ; Stack Frame Size: 21 (bytes)
                           A  8640    ;       Spill Code: -1 (instruction)
                           A  8641    
                           A  8642    
                           A  8643    .ENDFUNC "DrawLine",1195,"_DrawLine"
                           A  8644    ; 1196	{
                           A  8645    ; 1197	 if (on) 
                           A  8646    ; 1198	   writeReg(RA8875_PWRR, RA8875_PWRR_NO
                           A  8647    ; 1199	 else
                           A  8648    ; 1200	   writeReg(RA8875_PWRR, RA8875_PWRR_NO
                           A  8649    ; 1201	}
                           A  8650    ; 1202	
                           A  8651    ; 1203	/**************************************
001DAE                     A  8652    _displayOn:
                           A  8653    .DEFINE "_displayOn"
                           A  8654    
                           A  8655    .VALUE _displayOn
                           A  8656    
                           A  8657    .CLASS 2
                           A  8658    
                           A  8659    .TYPE 65
                           A  8660    
                           A  8661    .ENDEF
                           A  8662    
                           A  8663    .BEGFUNC "displayOn",1203,"_displayOn"
                           A  8664    
                           A  8665    .LINE 1203
                           A  8666    
                           A  8667    .DEFINE "on"
                           A  8668    
                           A  8669    .CLASS 65
                           A  8670    
                           A  8671    .VALUE 6
                           A  8672    
                           A  8673    .TYPE 12
                           A  8674    
                           A  8675    .ENDEF
                           A  8676    
001DAE DDE5                A  8677    	PUSH	IX
001DB0 DD210000 00         A  8678    	LD	IX,0
001DB5 DD39                A  8679    	ADD	IX,SP
                           A  8680    ; 1204	/*!
                           A  8681    .LINE 1204
                           A  8682    
001DB7 DD7E06              A  8683    	LD	A,(IX+%6)
001DBA B7                  A  8684    	OR	A,A
001DBB 28 12               A  8685    	JR	Z,L_101
                           A  8686    ; 1205			controls the backligh by using 
                           A  8687    .LINE 1205
                           A  8688    
001DBD 01800000            A  8689    	LD	BC,128
001DC1 C5                  A  8690    	PUSH	BC
001DC2 01010000            A  8691    	LD	BC,1
001DC6 C5                  A  8692    	PUSH	BC
001DC7 CD 4E 1F 00         A  8693    	CALL	_writeReg
001DCB C1                  A  8694    	POP	BC
001DCC C1                  A  8695    	POP	BC
                           A  8696    ; 1206			It handles adafruit board separ
                           A  8697    .LINE 1206
                           A  8698    
001DCD 18 10               A  8699    	JR	L_102
001DCF                     A  8700    L_101:
                           A  8701    ; 1207			Parameters:
                           A  8702    .LINE 1207
                           A  8703    
001DCF 01000000            A  8704    	LD	BC,0
001DD3 C5                  A  8705    	PUSH	BC
001DD4 01010000            A  8706    	LD	BC,1
001DD8 C5                  A  8707    	PUSH	BC
001DD9 CD 4E 1F 00         A  8708    	CALL	_writeReg
001DDD C1                  A  8709    	POP	BC
001DDE C1                  A  8710    	POP	BC
                           A  8711    ; 1208			on: true(backlight on), false(b
001DDF                     A  8712    L_102:
                           A  8713    .LINE 1208
                           A  8714    
001DDF DDF9                A  8715    	LD	SP,IX
001DE1 DDE1                A  8716    	POP	IX
001DE3 C9                  A  8717    	RET	
                           A  8718    
                           A  8719    
                           A  8720    ;**************************** _displayOn ******
                           A  8721    ;Name                         Addr/Register   S
                           A  8722    ;_writeReg                           IMPORT  --
                           A  8723    ;on                                    IX+6    
                           A  8724    
                           A  8725    
                           A  8726    ; Stack Frame Size: 9 (bytes)
                           A  8727    ;       Spill Code: -1 (instruction)
                           A  8728    
                           A  8729    
                           A  8730    .ENDFUNC "displayOn",1208,"_displayOn"
                           A  8731    ; 1209	*/
                           A  8732    ; 1210	/**************************************
                           A  8733    ; 1211	void backlight(UINT8 on) //0.69b31 (fix
                           A  8734    ; 1212	{
                           A  8735    ; 1213		if (on == 1){
                           A  8736    ; 1214			PWM1config(1, RA8875_PWM_CLK_DI
                           A  8737    ; 1215			writeReg(RA8875_P1DCR, _brightn
                           A  8738    ; 1216			writeReg(RA8875_GPIOX, 1);
                           A  8739    ; 1217		} else {
                           A  8740    ; 1218			PWM1config(0, RA8875_PWM_CLK_DI
                           A  8741    ; 1219			writeReg(RA8875_GPIOX, 0);
001DE4                     A  8742    _backlight:
                           A  8743    .DEFINE "_backlight"
                           A  8744    
                           A  8745    .VALUE _backlight
                           A  8746    
                           A  8747    .CLASS 2
                           A  8748    
                           A  8749    .TYPE 65
                           A  8750    
                           A  8751    .ENDEF
                           A  8752    
                           A  8753    .BEGFUNC "backlight",1219,"_backlight"
                           A  8754    
                           A  8755    .LINE 1219
                           A  8756    
                           A  8757    .DEFINE "on"
                           A  8758    
                           A  8759    .CLASS 65
                           A  8760    
                           A  8761    .VALUE 6
                           A  8762    
                           A  8763    .TYPE 12
                           A  8764    
                           A  8765    .ENDEF
                           A  8766    
001DE4 DDE5                A  8767    	PUSH	IX
001DE6 DD210000 00         A  8768    	LD	IX,0
001DEB DD39                A  8769    	ADD	IX,SP
                           A  8770    ; 1220		}
                           A  8771    .LINE 1220
                           A  8772    
001DED DD7E06              A  8773    	LD	A,(IX+%6)
001DF0 FE01                A  8774    	CP	A,%1
001DF2 20 35               A  8775    	JR	NZ,L_104
                           A  8776    ; 1221	}
                           A  8777    .LINE 1221
                           A  8778    
001DF4 01040000            A  8779    	LD	BC,4
001DF8 C5                  A  8780    	PUSH	BC
001DF9 01010000            A  8781    	LD	BC,1
001DFD C5                  A  8782    	PUSH	BC
001DFE CD CA 1E 00         A  8783    	CALL	_PWM1config
001E02 C1                  A  8784    	POP	BC
001E03 C1                  A  8785    	POP	BC
                           A  8786    ; 1222	
                           A  8787    .LINE 1222
                           A  8788    
001E04 3A 00 00 00         A  8789    	LD	A,(__brightness)
001E08 4F                  A  8790    	LD	C,A
001E09 0600                A  8791    	LD	B,%0
001E0B C5                  A  8792    	PUSH	BC
001E0C 018B0000            A  8793    	LD	BC,139
001E10 C5                  A  8794    	PUSH	BC
001E11 CD 4E 1F 00         A  8795    	CALL	_writeReg
001E15 C1                  A  8796    	POP	BC
001E16 C1                  A  8797    	POP	BC
                           A  8798    ; 1223	void brightness(UINT8 val) 
                           A  8799    .LINE 1223
                           A  8800    
001E17 01010000            A  8801    	LD	BC,1
001E1B C5                  A  8802    	PUSH	BC
001E1C 01C70000            A  8803    	LD	BC,199
001E20 C5                  A  8804    	PUSH	BC
001E21 CD 4E 1F 00         A  8805    	CALL	_writeReg
001E25 C1                  A  8806    	POP	BC
001E26 C1                  A  8807    	POP	BC
                           A  8808    ; 1224	{
                           A  8809    .LINE 1224
                           A  8810    
001E27 18 20               A  8811    	JR	L_105
001E29                     A  8812    L_104:
                           A  8813    ; 1225		_brightness = val;
                           A  8814    .LINE 1225
                           A  8815    
001E29 01040000            A  8816    	LD	BC,4
001E2D C5                  A  8817    	PUSH	BC
001E2E 01000000            A  8818    	LD	BC,0
001E32 C5                  A  8819    	PUSH	BC
001E33 CD CA 1E 00         A  8820    	CALL	_PWM1config
001E37 C1                  A  8821    	POP	BC
001E38 C1                  A  8822    	POP	BC
                           A  8823    ; 1226		writeReg(RA8875_P1DCR, _brightness)
                           A  8824    .LINE 1226
                           A  8825    
001E39 01000000            A  8826    	LD	BC,0
001E3D C5                  A  8827    	PUSH	BC
001E3E 01C70000            A  8828    	LD	BC,199
001E42 C5                  A  8829    	PUSH	BC
001E43 CD 4E 1F 00         A  8830    	CALL	_writeReg
001E47 C1                  A  8831    	POP	BC
001E48 C1                  A  8832    	POP	BC
                           A  8833    ; 1227	}
                           A  8834    ; 1228	
001E49                     A  8835    L_105:
                           A  8836    .LINE 1228
                           A  8837    
001E49 DDF9                A  8838    	LD	SP,IX
001E4B DDE1                A  8839    	POP	IX
001E4D C9                  A  8840    	RET	
                           A  8841    
                           A  8842    
                           A  8843    ;**************************** _backlight ******
                           A  8844    ;Name                         Addr/Register   S
                           A  8845    ;__brightness                        STATIC    
                           A  8846    ;_writeReg                           IMPORT  --
                           A  8847    ;_PWM1config                         IMPORT  --
                           A  8848    ;on                                    IX+6    
                           A  8849    
                           A  8850    
                           A  8851    ; Stack Frame Size: 9 (bytes)
                           A  8852    ;       Spill Code: -1 (instruction)
                           A  8853    
                           A  8854    
                           A  8855    .ENDFUNC "backlight",1228,"_backlight"
                           A  8856    ; 1229	
                           A  8857    ; 1230	/************************* Mid Level **
                           A  8858    ; 1231	
001E4E                     A  8859    _brightness:
                           A  8860    .DEFINE "_brightness"
                           A  8861    
                           A  8862    .VALUE _brightness
                           A  8863    
                           A  8864    .CLASS 2
                           A  8865    
                           A  8866    .TYPE 65
                           A  8867    
                           A  8868    .ENDEF
                           A  8869    
                           A  8870    .BEGFUNC "brightness",1231,"_brightness"
                           A  8871    
                           A  8872    .LINE 1231
                           A  8873    
                           A  8874    .DEFINE "val"
                           A  8875    
                           A  8876    .CLASS 65
                           A  8877    
                           A  8878    .VALUE 6
                           A  8879    
                           A  8880    .TYPE 12
                           A  8881    
                           A  8882    .ENDEF
                           A  8883    
001E4E DDE5                A  8884    	PUSH	IX
001E50 DD210000 00         A  8885    	LD	IX,0
001E55 DD39                A  8886    	ADD	IX,SP
                           A  8887    ; 1232	
                           A  8888    .LINE 1232
                           A  8889    
001E57 DD7E06              A  8890    	LD	A,(IX+%6)
001E5A 32 00 00 00         A  8891    	LD	(__brightness),A
                           A  8892    ; 1233	/**************************************
                           A  8893    .LINE 1233
                           A  8894    
001E5E 3A 00 00 00         A  8895    	LD	A,(__brightness)
001E62 4F                  A  8896    	LD	C,A
001E63 0600                A  8897    	LD	B,%0
001E65 C5                  A  8898    	PUSH	BC
001E66 018B0000            A  8899    	LD	BC,139
001E6A C5                  A  8900    	PUSH	BC
001E6B CD 4E 1F 00         A  8901    	CALL	_writeReg
001E6F C1                  A  8902    	POP	BC
001E70 C1                  A  8903    	POP	BC
                           A  8904    ; 1234	/*!
                           A  8905    .LINE 1234
                           A  8906    
001E71 DDF9                A  8907    	LD	SP,IX
001E73 DDE1                A  8908    	POP	IX
001E75 C9                  A  8909    	RET	
                           A  8910    
                           A  8911    
                           A  8912    ;**************************** _brightness *****
                           A  8913    ;Name                         Addr/Register   S
                           A  8914    ;_writeReg                           IMPORT  --
                           A  8915    ;__brightness                        STATIC    
                           A  8916    ;val                                   IX+6    
                           A  8917    
                           A  8918    
                           A  8919    ; Stack Frame Size: 9 (bytes)
                           A  8920    ;       Spill Code: -1 (instruction)
                           A  8921    
                           A  8922    
                           A  8923    .ENDFUNC "brightness",1234,"_brightness"
                           A  8924    ; 1235	
                           A  8925    ; 1236	*/
                           A  8926    ; 1237	/**************************************
                           A  8927    ; 1238	void  writeCommand(UINT8 d) 
                           A  8928    ; 1239	{
                           A  8929    ; 1240		RA8875_CMD_REG=d;
                           A  8930    ; 1241	}
                           A  8931    ; 1242	/**************************************
                           A  8932    ; 1243	/*!
                           A  8933    ; 1244	
                           A  8934    ; 1245	*/
                           A  8935    ; 1246	/**************************************
001E76                     A  8936    _writeCommand:
                           A  8937    .DEFINE "_writeCommand"
                           A  8938    
                           A  8939    .VALUE _writeCommand
                           A  8940    
                           A  8941    .CLASS 2
                           A  8942    
                           A  8943    .TYPE 65
                           A  8944    
                           A  8945    .ENDEF
                           A  8946    
                           A  8947    .BEGFUNC "writeCommand",1246,"_writeCommand"
                           A  8948    
                           A  8949    .LINE 1246
                           A  8950    
                           A  8951    .DEFINE "d"
                           A  8952    
                           A  8953    .CLASS 65
                           A  8954    
                           A  8955    .VALUE 6
                           A  8956    
                           A  8957    .TYPE 12
                           A  8958    
                           A  8959    .ENDEF
                           A  8960    
001E76 DDE5                A  8961    	PUSH	IX
001E78 DD210000 00         A  8962    	LD	IX,0
001E7D DD39                A  8963    	ADD	IX,SP
                           A  8964    ; 1247	void  writeData(UINT8 d) 
                           A  8965    .LINE 1247
                           A  8966    
001E7F DD7E06              A  8967    	LD	A,(IX+%6)
001E82 320100D0            A  8968    	LD	(13631489),A
                           A  8969    ; 1248	{
                           A  8970    .LINE 1248
                           A  8971    
001E86 DDF9                A  8972    	LD	SP,IX
001E88 DDE1                A  8973    	POP	IX
001E8A C9                  A  8974    	RET	
                           A  8975    
                           A  8976    
                           A  8977    ;**************************** _writeCommand ***
                           A  8978    ;Name                         Addr/Register   S
                           A  8979    ;d                                     IX+6    
                           A  8980    
                           A  8981    
                           A  8982    ; Stack Frame Size: 9 (bytes)
                           A  8983    ;       Spill Code: -1 (instruction)
                           A  8984    
                           A  8985    
                           A  8986    .ENDFUNC "writeCommand",1248,"_writeCommand"
                           A  8987    ; 1249		RA8875_DATA_REG=d;
                           A  8988    ; 1250	}
                           A  8989    ; 1251	/**************************************
                           A  8990    ; 1252	/*!
                           A  8991    ; 1253	      Waits for screen to finish by pol
                           A  8992    ; 1254	*/
                           A  8993    ; 1255	/**************************************
001E8B                     A  8994    _writeData:
                           A  8995    .DEFINE "_writeData"
                           A  8996    
                           A  8997    .VALUE _writeData
                           A  8998    
                           A  8999    .CLASS 2
                           A  9000    
                           A  9001    .TYPE 65
                           A  9002    
                           A  9003    .ENDEF
                           A  9004    
                           A  9005    .BEGFUNC "writeData",1255,"_writeData"
                           A  9006    
                           A  9007    .LINE 1255
                           A  9008    
                           A  9009    .DEFINE "d"
                           A  9010    
                           A  9011    .CLASS 65
                           A  9012    
                           A  9013    .VALUE 6
                           A  9014    
                           A  9015    .TYPE 12
                           A  9016    
                           A  9017    .ENDEF
                           A  9018    
001E8B DDE5                A  9019    	PUSH	IX
001E8D DD210000 00         A  9020    	LD	IX,0
001E92 DD39                A  9021    	ADD	IX,SP
                           A  9022    ; 1256	UINT8 waitPoll(UINT8 regname, UINT8 wai
                           A  9023    .LINE 1256
                           A  9024    
001E94 DD7E06              A  9025    	LD	A,(IX+%6)
001E97 320000D0            A  9026    	LD	(13631488),A
                           A  9027    ; 1257	  /* Wait for the command to finish */
                           A  9028    .LINE 1257
                           A  9029    
001E9B DDF9                A  9030    	LD	SP,IX
001E9D DDE1                A  9031    	POP	IX
001E9F C9                  A  9032    	RET	
                           A  9033    
                           A  9034    
                           A  9035    ;**************************** _writeData ******
                           A  9036    ;Name                         Addr/Register   S
                           A  9037    ;d                                     IX+6    
                           A  9038    
                           A  9039    
                           A  9040    ; Stack Frame Size: 9 (bytes)
                           A  9041    ;       Spill Code: -1 (instruction)
                           A  9042    
                           A  9043    
                           A  9044    .ENDFUNC "writeData",1257,"_writeData"
                           A  9045    ; 1258	    UINT8 temp = readReg(regname);
                           A  9046    ; 1259	    if (!(temp & waitflag))
                           A  9047    ; 1260			return 1;
                           A  9048    ; 1261		else
                           A  9049    ; 1262			return 0;
                           A  9050    ; 1263	}
001EA0                     A  9051    _waitPoll:
                           A  9052    .DEFINE "_waitPoll"
                           A  9053    
                           A  9054    .VALUE _waitPoll
                           A  9055    
                           A  9056    .CLASS 2
                           A  9057    
                           A  9058    .TYPE 76
                           A  9059    
                           A  9060    .ENDEF
                           A  9061    
                           A  9062    .BEGFUNC "waitPoll",1263,"_waitPoll"
                           A  9063    
                           A  9064    .LINE 1263
                           A  9065    
                           A  9066    .DEFINE "regname"
                           A  9067    
                           A  9068    .CLASS 65
                           A  9069    
                           A  9070    .VALUE 6
                           A  9071    
                           A  9072    .TYPE 12
                           A  9073    
                           A  9074    .ENDEF
                           A  9075    
                           A  9076    .DEFINE "waitflag"
                           A  9077    
                           A  9078    .CLASS 65
                           A  9079    
                           A  9080    .VALUE 9
                           A  9081    
                           A  9082    .TYPE 12
                           A  9083    
                           A  9084    .ENDEF
                           A  9085    
                           A  9086    .DEFINE "temp"
                           A  9087    
                           A  9088    .CLASS 65
                           A  9089    
                           A  9090    .VALUE -1
                           A  9091    
                           A  9092    .TYPE 12
                           A  9093    
                           A  9094    .ENDEF
                           A  9095    
001EA0 DDE5                A  9096    	PUSH	IX
001EA2 DD210000 00         A  9097    	LD	IX,0
001EA7 DD39                A  9098    	ADD	IX,SP
001EA9 3B                  A  9099    	DEC	SP
                           A  9100    ; 1264	
                           A  9101    ; 1265	/**************************************
                           A  9102    .LINE 1265
                           A  9103    
001EAA DD4E06              A  9104    	LD	C,(IX+%6)
001EAD 0600                A  9105    	LD	B,%0
001EAF C5                  A  9106    	PUSH	BC
001EB0 CD 6B 1F 00         A  9107    	CALL	_readReg
001EB4 C1                  A  9108    	POP	BC
001EB5 DD77FF              A  9109    	LD	(IX+%FFFFFFFF),A
                           A  9110    ; 1266	/*!
                           A  9111    .LINE 1266
                           A  9112    
001EB8 DD7EFF              A  9113    	LD	A,(IX+%FFFFFFFF)
001EBB DDA609              A  9114    	AND	A,(IX+%9)
001EBE 20 04               A  9115    	JR	NZ,L_110
                           A  9116    ; 1267	
                           A  9117    .LINE 1267
                           A  9118    
001EC0 3E01                A  9119    	LD	A,%1
001EC2 18 01               A  9120    	JR	L_111
                           A  9121    ; 1268	*/
001EC4                     A  9122    L_110:
                           A  9123    .LINE 1268
                           A  9124    
                           A  9125    ; 1269	/**************************************
                           A  9126    .LINE 1269
                           A  9127    
001EC4 AF                  A  9128    	XOR	A,A
                           A  9129    ; 1270	void PWM1config(UINT8 on, UINT8 clock) 
001EC5                     A  9130    L_111:
                           A  9131    .LINE 1270
                           A  9132    
001EC5 DDF9                A  9133    	LD	SP,IX
001EC7 DDE1                A  9134    	POP	IX
001EC9 C9                  A  9135    	RET	
                           A  9136    
                           A  9137    
                           A  9138    ;**************************** _waitPoll *******
                           A  9139    ;Name                         Addr/Register   S
                           A  9140    ;_readReg                            IMPORT  --
                           A  9141    ;temp                                  IX-1    
                           A  9142    ;waitflag                              IX+9    
                           A  9143    ;regname                               IX+6    
                           A  9144    
                           A  9145    
                           A  9146    ; Stack Frame Size: 13 (bytes)
                           A  9147    ;       Spill Code: -1 (instruction)
                           A  9148    
                           A  9149    
                           A  9150    .ENDFUNC "waitPoll",1270,"_waitPoll"
                           A  9151    ; 1271	  if (on) {
                           A  9152    ; 1272	    writeReg(RA8875_P1CR, RA8875_P1CR_E
                           A  9153    ; 1273	  } else {
                           A  9154    ; 1274	    writeReg(RA8875_P1CR, RA8875_P1CR_D
                           A  9155    ; 1275	  }
                           A  9156    ; 1276	}
                           A  9157    ; 1277	
001ECA                     A  9158    _PWM1config:
                           A  9159    .DEFINE "_PWM1config"
                           A  9160    
                           A  9161    .VALUE _PWM1config
                           A  9162    
                           A  9163    .CLASS 2
                           A  9164    
                           A  9165    .TYPE 65
                           A  9166    
                           A  9167    .ENDEF
                           A  9168    
                           A  9169    .BEGFUNC "PWM1config",1277,"_PWM1config"
                           A  9170    
                           A  9171    .LINE 1277
                           A  9172    
                           A  9173    .DEFINE "on"
                           A  9174    
                           A  9175    .CLASS 65
                           A  9176    
                           A  9177    .VALUE 6
                           A  9178    
                           A  9179    .TYPE 12
                           A  9180    
                           A  9181    .ENDEF
                           A  9182    
                           A  9183    .DEFINE "clock"
                           A  9184    
                           A  9185    .CLASS 65
                           A  9186    
                           A  9187    .VALUE 9
                           A  9188    
                           A  9189    .TYPE 12
                           A  9190    
                           A  9191    .ENDEF
                           A  9192    
001ECA DDE5                A  9193    	PUSH	IX
001ECC DD210000 00         A  9194    	LD	IX,0
001ED1 DD39                A  9195    	ADD	IX,SP
                           A  9196    ; 1278	/**************************************
                           A  9197    .LINE 1278
                           A  9198    
001ED3 DD7E06              A  9199    	LD	A,(IX+%6)
001ED6 B7                  A  9200    	OR	A,A
001ED7 28 18               A  9201    	JR	Z,L_113
                           A  9202    ; 1279	/*!
                           A  9203    .LINE 1279
                           A  9204    
001ED9 DD7E09              A  9205    	LD	A,(IX+%9)
001EDC E60F                A  9206    	AND	A,%F
001EDE CBFF                A  9207    	SET	%7,A
001EE0 4F                  A  9208    	LD	C,A
001EE1 0600                A  9209    	LD	B,%0
001EE3 C5                  A  9210    	PUSH	BC
001EE4 018A0000            A  9211    	LD	BC,138
001EE8 C5                  A  9212    	PUSH	BC
001EE9 CD 4E 1F 00         A  9213    	CALL	_writeReg
001EED C1                  A  9214    	POP	BC
001EEE C1                  A  9215    	POP	BC
                           A  9216    ; 1280	
                           A  9217    .LINE 1280
                           A  9218    
001EEF 18 16               A  9219    	JR	L_114
001EF1                     A  9220    L_113:
                           A  9221    ; 1281	*/
                           A  9222    .LINE 1281
                           A  9223    
001EF1 DD7E09              A  9224    	LD	A,(IX+%9)
001EF4 E60F                A  9225    	AND	A,%F
001EF6 F600                A  9226    	OR	A,%0
001EF8 4F                  A  9227    	LD	C,A
001EF9 0600                A  9228    	LD	B,%0
001EFB C5                  A  9229    	PUSH	BC
001EFC 018A0000            A  9230    	LD	BC,138
001F00 C5                  A  9231    	PUSH	BC
001F01 CD 4E 1F 00         A  9232    	CALL	_writeReg
001F05 C1                  A  9233    	POP	BC
001F06 C1                  A  9234    	POP	BC
                           A  9235    ; 1282	/**************************************
                           A  9236    ; 1283	void PWM2config(UINT8 on, UINT8 clock) 
001F07                     A  9237    L_114:
                           A  9238    .LINE 1283
                           A  9239    
001F07 DDF9                A  9240    	LD	SP,IX
001F09 DDE1                A  9241    	POP	IX
001F0B C9                  A  9242    	RET	
                           A  9243    
                           A  9244    
                           A  9245    ;**************************** _PWM1config *****
                           A  9246    ;Name                         Addr/Register   S
                           A  9247    ;_writeReg                           IMPORT  --
                           A  9248    ;clock                                 IX+9    
                           A  9249    ;on                                    IX+6    
                           A  9250    
                           A  9251    
                           A  9252    ; Stack Frame Size: 12 (bytes)
                           A  9253    ;       Spill Code: -1 (instruction)
                           A  9254    
                           A  9255    
                           A  9256    .ENDFUNC "PWM1config",1283,"_PWM1config"
                           A  9257    ; 1284	  if (on) {
                           A  9258    ; 1285	    writeReg(RA8875_P2CR, RA8875_P2CR_E
                           A  9259    ; 1286	  } else {
                           A  9260    ; 1287	    writeReg(RA8875_P2CR, RA8875_P2CR_D
                           A  9261    ; 1288	  }
                           A  9262    ; 1289	}
                           A  9263    ; 1290	
001F0C                     A  9264    _PWM2config:
                           A  9265    .DEFINE "_PWM2config"
                           A  9266    
                           A  9267    .VALUE _PWM2config
                           A  9268    
                           A  9269    .CLASS 2
                           A  9270    
                           A  9271    .TYPE 65
                           A  9272    
                           A  9273    .ENDEF
                           A  9274    
                           A  9275    .BEGFUNC "PWM2config",1290,"_PWM2config"
                           A  9276    
                           A  9277    .LINE 1290
                           A  9278    
                           A  9279    .DEFINE "on"
                           A  9280    
                           A  9281    .CLASS 65
                           A  9282    
                           A  9283    .VALUE 6
                           A  9284    
                           A  9285    .TYPE 12
                           A  9286    
                           A  9287    .ENDEF
                           A  9288    
                           A  9289    .DEFINE "clock"
                           A  9290    
                           A  9291    .CLASS 65
                           A  9292    
                           A  9293    .VALUE 9
                           A  9294    
                           A  9295    .TYPE 12
                           A  9296    
                           A  9297    .ENDEF
                           A  9298    
001F0C DDE5                A  9299    	PUSH	IX
001F0E DD210000 00         A  9300    	LD	IX,0
001F13 DD39                A  9301    	ADD	IX,SP
                           A  9302    ; 1291	/************************* Low Level **
                           A  9303    .LINE 1291
                           A  9304    
001F15 DD7E06              A  9305    	LD	A,(IX+%6)
001F18 B7                  A  9306    	OR	A,A
001F19 28 18               A  9307    	JR	Z,L_116
                           A  9308    ; 1292	
                           A  9309    .LINE 1292
                           A  9310    
001F1B DD7E09              A  9311    	LD	A,(IX+%9)
001F1E E60F                A  9312    	AND	A,%F
001F20 CBFF                A  9313    	SET	%7,A
001F22 4F                  A  9314    	LD	C,A
001F23 0600                A  9315    	LD	B,%0
001F25 C5                  A  9316    	PUSH	BC
001F26 018C0000            A  9317    	LD	BC,140
001F2A C5                  A  9318    	PUSH	BC
001F2B CD 4E 1F 00         A  9319    	CALL	_writeReg
001F2F C1                  A  9320    	POP	BC
001F30 C1                  A  9321    	POP	BC
                           A  9322    ; 1293	/**************************************
                           A  9323    .LINE 1293
                           A  9324    
001F31 18 16               A  9325    	JR	L_117
001F33                     A  9326    L_116:
                           A  9327    ; 1294	/*!
                           A  9328    .LINE 1294
                           A  9329    
001F33 DD7E09              A  9330    	LD	A,(IX+%9)
001F36 E60F                A  9331    	AND	A,%F
001F38 F600                A  9332    	OR	A,%0
001F3A 4F                  A  9333    	LD	C,A
001F3B 0600                A  9334    	LD	B,%0
001F3D C5                  A  9335    	PUSH	BC
001F3E 018C0000            A  9336    	LD	BC,140
001F42 C5                  A  9337    	PUSH	BC
001F43 CD 4E 1F 00         A  9338    	CALL	_writeReg
001F47 C1                  A  9339    	POP	BC
001F48 C1                  A  9340    	POP	BC
                           A  9341    ; 1295	
                           A  9342    ; 1296	*/
001F49                     A  9343    L_117:
                           A  9344    .LINE 1296
                           A  9345    
001F49 DDF9                A  9346    	LD	SP,IX
001F4B DDE1                A  9347    	POP	IX
001F4D C9                  A  9348    	RET	
                           A  9349    
                           A  9350    
                           A  9351    ;**************************** _PWM2config *****
                           A  9352    ;Name                         Addr/Register   S
                           A  9353    ;_writeReg                           IMPORT  --
                           A  9354    ;clock                                 IX+9    
                           A  9355    ;on                                    IX+6    
                           A  9356    
                           A  9357    
                           A  9358    ; Stack Frame Size: 12 (bytes)
                           A  9359    ;       Spill Code: -1 (instruction)
                           A  9360    
                           A  9361    
                           A  9362    .ENDFUNC "PWM2config",1296,"_PWM2config"
                           A  9363    ; 1297	/**************************************
                           A  9364    ; 1298	void writeReg(UINT8 reg, UINT8 data)
                           A  9365    ; 1299	{
                           A  9366    ; 1300		RA8875_CMD_REG=reg;
                           A  9367    ; 1301	#pragma asm 
                           A  9368    ; 1302		NOP
                           A  9369    ; 1303	#pragma endasm	
                           A  9370    ; 1304		RA8875_DATA_REG=data;				
                           A  9371    ; 1305	}
                           A  9372    ; 1306	
001F4E                     A  9373    _writeReg:
                           A  9374    .DEFINE "_writeReg"
                           A  9375    
                           A  9376    .VALUE _writeReg
                           A  9377    
                           A  9378    .CLASS 2
                           A  9379    
                           A  9380    .TYPE 65
                           A  9381    
                           A  9382    .ENDEF
                           A  9383    
                           A  9384    .BEGFUNC "writeReg",1306,"_writeReg"
                           A  9385    
                           A  9386    .LINE 1306
                           A  9387    
                           A  9388    .DEFINE "reg"
                           A  9389    
                           A  9390    .CLASS 65
                           A  9391    
                           A  9392    .VALUE 6
                           A  9393    
                           A  9394    .TYPE 12
                           A  9395    
                           A  9396    .ENDEF
                           A  9397    
                           A  9398    .DEFINE "data"
                           A  9399    
                           A  9400    .CLASS 65
                           A  9401    
                           A  9402    .VALUE 9
                           A  9403    
                           A  9404    .TYPE 12
                           A  9405    
                           A  9406    .ENDEF
                           A  9407    
001F4E DDE5                A  9408    	PUSH	IX
001F50 DD210000 00         A  9409    	LD	IX,0
001F55 DD39                A  9410    	ADD	IX,SP
                           A  9411    ; 1307	/**************************************
                           A  9412    .LINE 1307
                           A  9413    
001F57 DD7E06              A  9414    	LD	A,(IX+%6)
001F5A 320100D0            A  9415    	LD	(13631489),A
                           A  9416    ; 1308	/*!
                           A  9417    ; 1309	
                           A  9418    .LINE 1309
                           A  9419    
001F5E 00                  A  9420    	NOP 
                           A  9421    ; 1310	*/
                           A  9422    ; 1311	/**************************************
                           A  9423    .LINE 1311
                           A  9424    
001F5F DD7E09              A  9425    	LD	A,(IX+%9)
001F62 320000D0            A  9426    	LD	(13631488),A
                           A  9427    ; 1312	UINT8 readReg(UINT8 reg)
                           A  9428    .LINE 1312
                           A  9429    
001F66 DDF9                A  9430    	LD	SP,IX
001F68 DDE1                A  9431    	POP	IX
001F6A C9                  A  9432    	RET	
                           A  9433    
                           A  9434    
                           A  9435    ;**************************** _writeReg *******
                           A  9436    ;Name                         Addr/Register   S
                           A  9437    ;data                                  IX+9    
                           A  9438    ;reg                                   IX+6    
                           A  9439    
                           A  9440    
                           A  9441    ; Stack Frame Size: 12 (bytes)
                           A  9442    ;       Spill Code: -1 (instruction)
                           A  9443    
                           A  9444    
                           A  9445    .ENDFUNC "writeReg",1312,"_writeReg"
                           A  9446    ; 1313	{
                           A  9447    ; 1314		RA8875_CMD_REG=reg;
                           A  9448    ; 1315	#pragma asm 
                           A  9449    ; 1316		NOP
                           A  9450    ; 1317	#pragma endasm	
                           A  9451    ; 1318		return RA8875_DATA_REG;
                           A  9452    ; 1319	}
                           A  9453    ; 1320	
001F6B                     A  9454    _readReg:
                           A  9455    .DEFINE "_readReg"
                           A  9456    
                           A  9457    .VALUE _readReg
                           A  9458    
                           A  9459    .CLASS 2
                           A  9460    
                           A  9461    .TYPE 76
                           A  9462    
                           A  9463    .ENDEF
                           A  9464    
                           A  9465    .BEGFUNC "readReg",1320,"_readReg"
                           A  9466    
                           A  9467    .LINE 1320
                           A  9468    
                           A  9469    .DEFINE "reg"
                           A  9470    
                           A  9471    .CLASS 65
                           A  9472    
                           A  9473    .VALUE 6
                           A  9474    
                           A  9475    .TYPE 12
                           A  9476    
                           A  9477    .ENDEF
                           A  9478    
001F6B DDE5                A  9479    	PUSH	IX
001F6D DD210000 00         A  9480    	LD	IX,0
001F72 DD39                A  9481    	ADD	IX,SP
                           A  9482    ; 1321	
                           A  9483    .LINE 1321
                           A  9484    
001F74 DD7E06              A  9485    	LD	A,(IX+%6)
001F77 320100D0            A  9486    	LD	(13631489),A
                           A  9487    .LINE 1323
                           A  9488    
001F7B 00                  A  9489    	NOP 
                           A  9490    .LINE 1325
                           A  9491    
001F7C 3A0000D0            A  9492    	LD	A,(13631488)
                           A  9493    .LINE 1326
                           A  9494    
001F80 DDF9                A  9495    	LD	SP,IX
001F82 DDE1                A  9496    	POP	IX
001F84 C9                  A  9497    	RET	
                           A  9498    
                           A  9499    
                           A  9500    ;**************************** _readReg ********
                           A  9501    ;Name                         Addr/Register   S
                           A  9502    ;reg                                   IX+6    
                           A  9503    
                           A  9504    
                           A  9505    ; Stack Frame Size: 9 (bytes)
                           A  9506    ;       Spill Code: -1 (instruction)
                           A  9507    
                           A  9508    
                           A  9509    .ENDFUNC "readReg",1326,"_readReg"
                           A  9510    	XREF _InitUART:ROM
                           A  9511    	XREF _ra8875int_isr:ROM
                           A  9512    	XREF _UG_ButtonSetFont:ROM
                           A  9513    	XREF _UG_ButtonSetText:ROM
                           A  9514    	XREF _UG_ButtonShow:ROM
                           A  9515    	XREF _UG_ButtonCreate:ROM
                           A  9516    	XREF _UG_WindowSetTitleTextFont:ROM
                           A  9517    	XREF _UG_WindowSetTitleText:ROM
                           A  9518    	XREF _UG_WindowResize:ROM
                           A  9519    	XREF _UG_WindowShow:ROM
                           A  9520    	XREF _UG_WindowDelete:ROM
                           A  9521    	XREF _UG_WindowCreate:ROM
                           A  9522    	XREF _UG_Update:ROM
                           A  9523    	XREF _UG_SetBackcolor:ROM
                           A  9524    	XREF _UG_SetForecolor:ROM
                           A  9525    	XREF _UG_PutString:ROM
                           A  9526    	XREF _UG_FontSelect:ROM
                           A  9527    	XREF _UG_Init:ROM
                           A  9528    	XREF _FONT_24X40:ROM
                           A  9529    	XREF _FONT_22X36:ROM
                           A  9530    	XREF _FONT_16X26:ROM
                           A  9531    	XREF _FONT_12X20:ROM
                           A  9532    	XREF _RZKPendOnEventGroup:ROM
                           A  9533    	XREF _RZKPostToEventGroup:ROM
                           A  9534    	XREF _RZKCreateEventGroup:ROM
                           A  9535    	XREF _RZKInstallInterruptHandler:ROM
                           A  9536    	XREF _RZKSuspendInterruptThread:ROM
                           A  9537    	XREF _RZKFormatError:ROM
                           A  9538    	XREF _RZKGetErrorNum:ROM
                           A  9539    	XREF _RZKSuspendThread:ROM
                           A  9540    	XREF _RZKCreateThreadEnhanced:ROM
                           A  9541    	XREF _printf:ROM
                           A  9542    	XREF __lsub:ROM
                           A  9543    	XREF __idivs:ROM
                           A  9544    	XREF __stoi:ROM
                           A  9545    	XREF __stoiu:ROM
                           A  9546    	XREF __icmpzero:ROM
                           A  9547    	XREF __lcmpzero:ROM
                           A  9548    	XREF __case8D:ROM
                           A  9549    	XREF __ishrs_b:ROM
                           A  9550    	XREF __sshru_b:ROM
                           A  9551    	XDEF _readReg
                           A  9552    	XDEF _writeReg
                           A  9553    	XDEF _PWM2config
                           A  9554    	XDEF _PWM1config
                           A  9555    	XDEF _waitPoll
                           A  9556    	XDEF _writeData
                           A  9557    	XDEF _writeCommand
                           A  9558    	XDEF _brightness
                           A  9559    	XDEF _backlight
                           A  9560    	XDEF _displayOn
                           A  9561    	XDEF _DrawLine
                           A  9562    	XDEF _DrawNextHPixel
                           A  9563    	XDEF _DrawPixel
                           A  9564    	XDEF _pushPixels
                           A  9565    	XDEF _setXY
                           A  9566    	XDEF _fillRect
                           A  9567    	XDEF _curveHelper
                           A  9568    	XDEF _ellipseHelper
                           A  9569    	XDEF _triangleHelper
                           A  9570    	XDEF _circleHelper
                           A  9571    	XDEF _rectCornerHelper
                           A  9572    	XDEF _rectHelper
                           A  9573    	XDEF _fillScreen
                           A  9574    	XDEF _textWrite
                           A  9575    	XDEF _textTransparent
                           A  9576    	XDEF _textEnlarge
                           A  9577    	XDEF _textColor
                           A  9578    	XDEF _textSetCursor
                           A  9579    	XDEF _switchArial32
                           A  9580    	XDEF _switchTimes32
                           A  9581    	XDEF _switchArial24
                           A  9582    	XDEF _switchTimes24
                           A  9583    	XDEF _switchArial16
                           A  9584    	XDEF _switchTimes16
                           A  9585    	XDEF _textMode
                           A  9586    	XDEF _graphicsMode
                           A  9587    	XDEF _PLLinit
                           A  9588    	XDEF _RA8875intIsrTask
                           A  9589    	XDEF _RA8875Task
                           A  9590    	XDEF _testButton
                           A  9591    	XDEF _HwIni
                           A  9592    	XDEF _SwIni
                           A  9593    	XDEF _RA8875Ini
                           A  9594    	XDEF _testWND
                           A  9595    	XDEF _testBut
                           A  9596    	XDEF _testOBJ
                           A  9597    	XDEF _mygui
                           A  9598    	XDEF _i_isFont
                           A  9599    	XDEF _i_text_ptr
                           A  9600    	XDEF _ehRA8875int
                           A  9601    	XDEF _ghRA8875int_isr
                           A  9602    	XDEF _ghRA88775
                           A  9603    	XDEF __textScale
                           A  9604    	XDEF __brightness
                           A  9605    	XDEF __height
                           A  9606    	XDEF __width
                           A  9607    	XDEF __size
                           A  9608    	END


Errors: 0
Warnings: 0
Lines Assembled: 9609
